Certificate:
    Data:
        Version: 1 (0x0)
        Serial Number:
            d2:d8:a5:3e:5a:e2:4f:fc
    Signature Algorithm: sha1WithRSAEncryption
        Issuer: C=US, ST=CA, L=Santa Clara, O=Real Time Innovations, CN=RTI CA/emailAddress=secure@rti.com
        Validity
            Not Before: Jun 22 21:18:53 2017 GMT
            Not After : Jun 22 21:18:53 2018 GMT
        Subject: C=US, ST=CA, O=Real Time Innovations, CN=dtlsexample2/emailAddress=you@rti.com
        Subject Public Key Info:
            Public Key Algorithm: rsaEncryption
                Public-Key: (2048 bit)
                Modulus:
                    00:fa:8b:aa:a0:1d:81:3b:df:dd:e9:69:f7:3f:22:
                    04:7c:6d:10:63:b0:a6:03:53:1b:ed:1e:73:1c:13:
                    c5:b4:fb:d0:d1:94:eb:46:cc:99:67:d8:e2:f3:51:
                    b6:bd:a8:d6:6a:70:e9:d3:47:40:c8:73:42:ac:47:
                    41:d7:82:fe:a5:c5:8f:76:8b:ca:1b:01:51:22:96:
                    8f:ac:b7:c5:60:20:1c:3d:75:5e:49:a8:88:1d:c5:
                    e8:26:51:cf:35:2a:67:ac:db:fb:3f:d0:ef:78:fb:
                    aa:c0:a6:58:aa:4d:98:50:68:35:ba:0a:aa:bd:9c:
                    3b:7a:27:68:91:63:d6:30:26:b7:73:5f:3c:a9:0b:
                    26:fc:d9:4c:00:46:38:c4:ac:c4:67:7e:cd:bc:0c:
                    c6:5d:c8:6f:0e:1d:e6:d1:30:d9:cb:b5:9a:82:a8:
                    35:f9:99:f0:f3:61:15:d7:5c:75:df:a1:33:85:7e:
                    fe:33:09:57:60:4e:2c:9c:6a:13:6b:9d:01:da:66:
                    4b:2b:2e:51:ce:b8:7a:a8:12:30:ef:f3:9c:f5:df:
                    34:7b:e6:d3:a4:93:e5:46:c1:50:62:f2:3e:e6:e0:
                    1d:1d:5c:32:e6:fb:08:e1:f0:9e:b0:61:67:2e:38:
                    a6:66:d4:b2:f8:0b:52:c1:d6:5e:b9:83:58:e2:81:
                    54:8d
                Exponent: 65537 (0x10001)
    Signature Algorithm: sha1WithRSAEncryption
         59:78:c7:21:e2:b4:99:c5:71:55:03:eb:f8:75:8a:4a:df:8b:
         62:c9:85:d8:e6:06:f0:a1:7b:9b:69:3b:2d:8f:ec:52:02:38:
         81:d9:c6:40:9a:13:56:10:49:48:8f:19:0e:af:b7:2a:e5:85:
         a0:ba:4c:92:33:cf:15:7b:52:b9:45:d8:d3:95:be:17:de:1d:
         64:2d:87:db:df:30:23:04:39:2b:a6:11:9d:60:1d:39:f2:06:
         b6:c6:5b:9f:5a:0c:a4:4e:5b:c9:d8:17:b8:c0:c2:88:91:ae:
         91:e5:ea:26:a7:06:59:35:6a:e9:14:89:12:d2:49:07:a1:b4:
         03:01:52:bc:5b:62:b2:69:e0:b7:0f:37:ae:38:af:e1:a1:5d:
         eb:70:07:24:bd:39:43:91:03:da:1a:32:67:9c:ad:99:b7:3f:
         47:92:0d:21:14:13:15:e8:b1:6f:c9:f0:e9:f8:ad:e2:25:5d:
         ac:9b:07:88:72:0d:9e:21:eb:87:47:37:f6:ff:c5:4f:3c:93:
         da:14:35:e4:69:8d:21:8e:5c:e2:55:4e:d6:24:90:ae:c3:c0:
         e0:24:a7:72:5a:5d:8b:2e:75:8d:81:65:f0:b6:a3:4e:3d:27:
         db:98:38:e0:7f:c1:a1:c5:93:86:db:7c:ff:9b:a6:77:a3:b7:
         ea:d8:bc:07
-----BEGIN CERTIFICATE-----
MIIDajCCAlICCQDS2KU+WuJP/DANBgkqhkiG9w0BAQUFADCBgDELMAkGA1UEBhMC
VVMxCzAJBgNVBAgMAkNBMRQwEgYDVQQHDAtTYW50YSBDbGFyYTEeMBwGA1UECgwV
UmVhbCBUaW1lIElubm92YXRpb25zMQ8wDQYDVQQDDAZSVEkgQ0ExHTAbBgkqhkiG
9w0BCQEWDnNlY3VyZUBydGkuY29tMB4XDTE3MDYyMjIxMTg1M1oXDTE4MDYyMjIx
MTg1M1owbTELMAkGA1UEBhMCVVMxCzAJBgNVBAgMAkNBMR4wHAYDVQQKDBVSZWFs
IFRpbWUgSW5ub3ZhdGlvbnMxFTATBgNVBAMMDGR0bHNleGFtcGxlMjEaMBgGCSqG
SIb3DQEJARYLeW91QHJ0aS5jb20wggEiMA0GCSqGSIb3DQEBAQUAA4IBDwAwggEK
AoIBAQD6i6qgHYE7393pafc/IgR8bRBjsKYDUxvtHnMcE8W0+9DRlOtGzJln2OLz
Uba9qNZqcOnTR0DIc0KsR0HXgv6lxY92i8obAVEilo+st8VgIBw9dV5JqIgdxegm
Uc81Kmes2/s/0O94+6rApliqTZhQaDW6Cqq9nDt6J2iRY9YwJrdzXzypCyb82UwA
RjjErMRnfs28DMZdyG8OHebRMNnLtZqCqDX5mfDzYRXXXHXfoTOFfv4zCVdgTiyc
ahNrnQHaZksrLlHOuHqoEjDv85z13zR75tOkk+VGwVBi8j7m4B0dXDLm+wjh8J6w
YWcuOKZm1LL4C1LB1l65g1jigVSNAgMBAAEwDQYJKoZIhvcNAQEFBQADggEBAFl4
xyHitJnFcVUD6/h1ikrfi2LJhdjmBvChe5tpOy2P7FICOIHZxkCaE1YQSUiPGQ6v
tyrlhaC6TJIzzxV7UrlF2NOVvhfeHWQth9vfMCMEOSumEZ1gHTnyBrbGW59aDKRO
W8nYF7jAwoiRrpHl6ianBlk1aukUiRLSSQehtAMBUrxbYrJp4LcPN644r+GhXetw
ByS9OUORA9oaMmecrZm3P0eSDSEUExXosW/J8On4reIlXaybB4hyDZ4h64dHN/b/
xU88k9oUNeRpjSGOXOJVTtYkkK7DwOAkp3JaXYsudY2BZfC2o049J9uYOOB/waHF
k4bbfP+bpnejt+rYvAc=
-----END CERTIFICATE-----
-----BEGIN PRIVATE KEY-----
MIIEvgIBADANBgkqhkiG9w0BAQEFAASCBKgwggSkAgEAAoIBAQD6i6qgHYE7393p
afc/IgR8bRBjsKYDUxvtHnMcE8W0+9DRlOtGzJln2OLzUba9qNZqcOnTR0DIc0Ks
R0HXgv6lxY92i8obAVEilo+st8VgIBw9dV5JqIgdxegmUc81Kmes2/s/0O94+6rA
pliqTZhQaDW6Cqq9nDt6J2iRY9YwJrdzXzypCyb82UwARjjErMRnfs28DMZdyG8O
HebRMNnLtZqCqDX5mfDzYRXXXHXfoTOFfv4zCVdgTiycahNrnQHaZksrLlHOuHqo
EjDv85z13zR75tOkk+VGwVBi8j7m4B0dXDLm+wjh8J6wYWcuOKZm1LL4C1LB1l65
g1jigVSNAgMBAAECggEBAOrUUX51aRWnhCUsbtM7nRzKVJw7i759/STIb3eXiK1T
gKuPet4HEpnlDQKmSjOFtkJZxq+Cj1PRxGIY/7txSiAyBX9FEo8xMszKdaubK2In
dpCcG13KmpndTvPrpdzc/ANmxB1SRcINkEO1JlGpHOPwaLsRGGtTreOWYEo1WyIQ
rQlvqyQvZ/dOOfaSUV9Uf2VhLonsu/Yi/wZTUx7U/6zLVccpdYLFuI3wPTnZxj3w
O+ooqdP22Vq3aGmlD30D9uhwX1UJnKfV3RKMNbMKi8J6/ERW0yrJUU5NazL3agPg
KJrPA+wup9Ozvc+rVa8DjrGEH/E+jdbD6FAratX/OMECgYEA/0arQXUNIDdiaKSl
z0Qq+6dfJZtpw9DOH8z/6RtK1/eAnN+QTo57tmc7enxaz4Keyx0Z1ue8fRRGvHp/
tXrewIJ0eDNGJYCxs5ce9YEE0NbM6Bp44vFGocZQBDvCtPdtPwADu8qy3ByE3vmm
8SCQDYg97evWzrC3X8jg/q+LN7kCgYEA+0GQLdT35kCsza7YKq5I3B9AUqdFPTO8
nZ3g5WeDcN8sBQllFd6lyZK4WAGmCXQpppZFFF7cNHPijMa68W6ZYWhRadrwJJBM
ORUHb4xfL7CVuaZj/5SVnxdB2vvoF+uwVGM2i9GLu15smeHzOg4Nskd1nUqPFyDT
YemGfea8RXUCgYEA6Aqg2RtBFyvA9EXVwpXATIhTYKfod+pxs05wwL/iRHXiHrbJ
Qd8abS9hTXGESmP9W7vUJRj4qOmpcuIW/Cv4Fx1+KVTSSny1Cv4vUhI5Amx+Tezi
Pcf74EmXqoF392+BimbE/gq+kn4J+XUNXtmul95kDMT3uWHBDfxXKKsA7WECgYBh
orGfTcHjZMCB0O7Jbx57A13ggIWkacVizmYFXzsxkletwV/ZpsJv2Sbvc/yMcep5
hK1lZBNYAqxHnjYo+Zx6wKnaY6yr2LL1/5j7HOYkRw93rBPxzlByGPyLVxZyrTDB
KiiZHp2Y+vFivu3gYnOqEqC+talzCFt8Ed4kcJQ6vQKBgB7CVa104moPTe75JB44
YuyLjEwAqTFxuimzaFkZc4ezT1FX2W93aA1rtY4LTcWKfqJwsM5rUlb1O4qnG/ej
LN4C9T47BIDNV2WdPl66DApyqHBGqYg8V2PaM9HR9l57B3DtsZSc8AwL21oCKK7m
TrGr3nKOsje0rTfTVvl7yKai
-----END PRIVATE KEY-----
