Certificate:
    Data:
        Version: 1 (0x0)
        Serial Number: 2 (0x2)
    Signature Algorithm: sha256WithRSAEncryption
        Issuer: C=US, ST=CA, L=Santa Clara, O=Real Time Innovations, CN=RTI CA/emailAddress=secure@rti.com
        Validity
            Not Before: Jun 16 16:26:28 2017 GMT
            Not After : Jun 16 16:26:28 2018 GMT
        Subject: C=US, ST=CA, O=Real Time Innovations, CN=openfmbexample/emailAddress=support@rti.com
        Subject Public Key Info:
            Public Key Algorithm: rsaEncryption
                Public-Key: (2048 bit)
                Modulus:
                    00:ab:61:a1:32:66:df:8e:25:8d:30:e6:36:d2:c2:
                    60:30:90:76:e4:61:99:60:43:30:ee:ea:5a:66:34:
                    97:c6:54:bc:d0:e4:31:f9:71:0b:ac:bb:ec:06:7b:
                    8c:55:61:29:5e:7b:2f:48:02:f4:e5:9f:19:6d:d6:
                    e5:b7:ef:89:66:a0:77:0d:22:26:e7:9a:c6:27:8f:
                    0e:d4:05:40:6a:25:ee:ce:62:41:70:9e:ea:22:99:
                    a5:0a:7a:97:69:bb:b1:5b:05:19:fb:c0:32:bd:67:
                    6a:84:16:f5:4e:c4:d1:c5:61:b2:b9:cd:93:04:05:
                    ff:1c:7f:4e:22:34:54:18:7c:53:6b:70:58:6d:a5:
                    78:19:22:a7:cb:78:45:57:60:1e:1b:b5:ce:8e:69:
                    c0:5b:38:5c:d0:3b:fc:80:9d:6b:75:85:22:88:e7:
                    a3:69:31:5d:d4:25:d4:ad:4e:36:07:6a:4e:93:55:
                    5c:2f:61:5c:f6:84:d3:9c:7e:ce:b0:9b:19:0b:31:
                    eb:27:6e:a2:59:07:f9:dc:7d:0f:8e:88:e1:22:a0:
                    50:7e:d1:99:50:47:9a:5a:9b:96:57:70:ff:14:bd:
                    64:06:5d:79:69:20:f0:4e:43:a0:98:e6:a9:ab:1c:
                    f1:1f:00:19:0d:16:de:b4:5b:d2:a2:2e:93:56:30:
                    5d:7f
                Exponent: 65537 (0x10001)
    Signature Algorithm: sha256WithRSAEncryption
         5f:7f:24:55:25:94:ca:a8:f0:19:08:6b:86:19:28:6a:a7:0c:
         b1:ee:4e:60:c7:b9:0c:66:47:b8:90:72:a2:d1:78:ca:db:30:
         dd:ae:a6:30:e2:ae:6b:b9:a6:d2:e7:dd:63:a9:3d:df:b7:a6:
         cd:76:48:81:f9:52:ec:00:62:5d:5b:bb:4b:3a:90:7d:de:56:
         b4:35:01:10:68:7a:2b:f6:c9:80:d8:97:59:88:2b:3b:eb:17:
         34:45:7b:06:c2:49:0f:e6:41:b0:0a:3a:5f:81:6b:b1:84:63:
         d2:9a:58:13:ac:d9:7d:04:9b:94:2f:6f:4d:ed:55:97:0b:f5:
         e4:1c:6f:ab:99:41:10:18:b6:c6:7a:88:25:8e:1f:33:b0:be:
         88:b2:77:0d:22:d4:8d:fc:22:f2:96:1f:f2:b7:63:ba:56:34:
         9e:a8:6b:16:aa:08:38:b2:72:dd:84:d7:28:f8:0c:98:b7:a8:
         72:fd:0c:03:ba:57:db:9d:01:b2:f5:a3:35:80:d3:73:47:50:
         65:2c:29:c2:f7:55:e5:36:94:4a:84:79:2c:d0:3b:2f:5a:bf:
         33:bb:2f:8d:0d:3f:b9:82:cb:49:16:76:26:3a:fd:d5:64:d1:
         a7:f3:fb:5e:ef:73:80:49:af:a3:1a:b5:b6:6f:4f:6c:ed:bf:
         dd:70:9e:7a
-----BEGIN CERTIFICATE-----
MIIDaDCCAlACAQIwDQYJKoZIhvcNAQELBQAwgYAxCzAJBgNVBAYTAlVTMQswCQYD
VQQIDAJDQTEUMBIGA1UEBwwLU2FudGEgQ2xhcmExHjAcBgNVBAoMFVJlYWwgVGlt
ZSBJbm5vdmF0aW9uczEPMA0GA1UEAwwGUlRJIENBMR0wGwYJKoZIhvcNAQkBFg5z
ZWN1cmVAcnRpLmNvbTAeFw0xNzA2MTYxNjI2MjhaFw0xODA2MTYxNjI2MjhaMHMx
CzAJBgNVBAYTAlVTMQswCQYDVQQIDAJDQTEeMBwGA1UECgwVUmVhbCBUaW1lIElu
bm92YXRpb25zMRcwFQYDVQQDDA5vcGVuZm1iZXhhbXBsZTEeMBwGCSqGSIb3DQEJ
ARYPc3VwcG9ydEBydGkuY29tMIIBIjANBgkqhkiG9w0BAQEFAAOCAQ8AMIIBCgKC
AQEAq2GhMmbfjiWNMOY20sJgMJB25GGZYEMw7upaZjSXxlS80OQx+XELrLvsBnuM
VWEpXnsvSAL05Z8Zbdblt++JZqB3DSIm55rGJ48O1AVAaiXuzmJBcJ7qIpmlCnqX
abuxWwUZ+8AyvWdqhBb1TsTRxWGyuc2TBAX/HH9OIjRUGHxTa3BYbaV4GSKny3hF
V2AeG7XOjmnAWzhc0Dv8gJ1rdYUiiOejaTFd1CXUrU42B2pOk1VcL2Fc9oTTnH7O
sJsZCzHrJ26iWQf53H0PjojhIqBQftGZUEeaWpuWV3D/FL1kBl15aSDwTkOgmOap
qxzxHwAZDRbetFvSoi6TVjBdfwIDAQABMA0GCSqGSIb3DQEBCwUAA4IBAQBffyRV
JZTKqPAZCGuGGShqpwyx7k5gx7kMZke4kHKi0XjK2zDdrqYw4q5ruabS591jqT3f
t6bNdkiB+VLsAGJdW7tLOpB93la0NQEQaHor9smA2JdZiCs76xc0RXsGwkkP5kGw
CjpfgWuxhGPSmlgTrNl9BJuUL29N7VWXC/XkHG+rmUEQGLbGeogljh8zsL6IsncN
ItSN/CLylh/yt2O6VjSeqGsWqgg4snLdhNco+AyYt6hy/QwDulfbnQGy9aM1gNNz
R1BlLCnC91XlNpRKhHks0DsvWr8zuy+NDT+5gstJFnYmOv3VZNGn8/te73OASa+j
GrW2b09s7b/dcJ56
-----END CERTIFICATE-----
