Certificate:
    Data:
        Version: 1 (0x0)
        Serial Number:
            bc:a3:45:87:76:c2:5c:31
    Signature Algorithm: sha256WithRSAEncryption
        Issuer: C=US, ST=CA, L=Santa Clara, O=Real Time Innovations, CN=RTI CA/emailAddress=secure@rti.com
        Validity
            Not Before: Jun 22 21:19:34 2017 GMT
            Not After : Jun 21 21:19:34 2020 GMT
        Subject: C=US, ST=CA, L=Santa Clara, O=Real Time Innovations, CN=RTI CA/emailAddress=secure@rti.com
        Subject Public Key Info:
            Public Key Algorithm: rsaEncryption
                Public-Key: (2048 bit)
                Modulus:
                    00:a2:3e:32:57:16:cf:4f:8f:73:e7:19:59:d6:1f:
                    c4:2b:46:b4:48:b8:a2:73:68:0d:81:8c:e7:e0:79:
                    3b:b3:a7:52:d2:9a:bf:78:f6:0c:ee:16:6f:82:3d:
                    e9:c1:63:13:30:d8:cb:b0:7f:07:ab:56:62:0b:9e:
                    10:ec:63:38:fa:d8:4c:e8:00:b0:23:f4:6b:56:ff:
                    eb:50:a9:8f:9b:4f:ed:7a:a6:ef:16:d3:ca:80:15:
                    1d:2d:ce:a4:6d:6f:83:8d:38:1f:40:91:0a:13:0a:
                    c0:12:59:48:a5:7d:a8:75:7d:b6:62:fd:3d:fc:91:
                    90:06:8a:4b:19:6b:89:2d:45:f5:ea:7e:e3:36:3c:
                    7f:4d:85:da:8f:7b:2b:7b:fd:13:1b:bd:5b:d6:3a:
                    50:7d:6d:d6:57:73:1b:64:fa:fa:32:e5:a8:84:25:
                    db:33:55:8c:f8:b1:fc:0d:72:65:38:23:7a:4d:0c:
                    11:90:64:de:ca:10:cc:92:46:7c:a8:55:44:da:d8:
                    18:65:6a:7b:0f:47:d3:1d:66:c7:71:d5:14:d3:98:
                    e2:73:99:28:88:34:d2:95:57:ce:56:a5:22:3a:84:
                    a8:41:9a:33:4e:29:e1:0d:ec:4f:65:d1:5c:fc:7f:
                    b2:72:1d:d2:b0:84:d8:fb:cb:d9:ef:69:e2:f9:72:
                    45:09
                Exponent: 65537 (0x10001)
    Signature Algorithm: sha256WithRSAEncryption
         5d:8e:69:05:35:da:12:da:42:60:86:40:db:42:45:0c:72:b1:
         25:19:5f:57:2c:41:76:2c:b8:8c:c6:eb:3d:4c:56:06:27:2b:
         23:b7:e4:3d:29:73:5c:b8:64:28:73:02:f3:0e:9d:3b:b5:b1:
         4d:a0:2f:d2:9d:1c:77:4c:12:d0:79:7d:d3:01:50:5f:e0:f6:
         39:a3:0e:f7:84:7e:9c:8a:af:61:14:d3:b7:99:20:34:27:57:
         f6:db:0e:16:32:56:f4:6f:75:a0:35:32:4c:76:41:b5:10:5a:
         2d:05:56:76:ec:5f:0a:72:4d:cd:02:80:cd:00:fc:57:7a:9f:
         fb:a4:43:99:47:13:83:ee:78:fb:db:82:f2:4c:3c:aa:ff:43:
         83:f0:e3:d6:73:1e:38:bf:e4:64:9e:39:2c:91:be:70:86:fd:
         91:26:4a:68:5b:a9:03:a5:4a:d9:0f:fc:66:90:de:f6:f6:c4:
         00:de:97:8a:e0:7a:97:b2:5c:5e:eb:b1:6a:02:80:42:b0:29:
         fd:0d:41:4f:31:4c:75:70:4d:36:5b:9c:b1:fa:3c:13:c9:c6:
         0c:4c:29:17:f7:83:74:90:f7:32:99:be:69:df:e4:2f:5c:30:
         92:a8:75:82:b7:03:5e:15:a7:cd:d6:23:0b:ca:85:c7:62:77:
         fa:f6:8d:7f
-----BEGIN CERTIFICATE-----
MIIDfjCCAmYCCQC8o0WHdsJcMTANBgkqhkiG9w0BAQsFADCBgDELMAkGA1UEBhMC
VVMxCzAJBgNVBAgMAkNBMRQwEgYDVQQHDAtTYW50YSBDbGFyYTEeMBwGA1UECgwV
UmVhbCBUaW1lIElubm92YXRpb25zMQ8wDQYDVQQDDAZSVEkgQ0ExHTAbBgkqhkiG
9w0BCQEWDnNlY3VyZUBydGkuY29tMB4XDTE3MDYyMjIxMTkzNFoXDTIwMDYyMTIx
MTkzNFowgYAxCzAJBgNVBAYTAlVTMQswCQYDVQQIDAJDQTEUMBIGA1UEBwwLU2Fu
dGEgQ2xhcmExHjAcBgNVBAoMFVJlYWwgVGltZSBJbm5vdmF0aW9uczEPMA0GA1UE
AwwGUlRJIENBMR0wGwYJKoZIhvcNAQkBFg5zZWN1cmVAcnRpLmNvbTCCASIwDQYJ
KoZIhvcNAQEBBQADggEPADCCAQoCggEBAKI+MlcWz0+Pc+cZWdYfxCtGtEi4onNo
DYGM5+B5O7OnUtKav3j2DO4Wb4I96cFjEzDYy7B/B6tWYgueEOxjOPrYTOgAsCP0
a1b/61Cpj5tP7Xqm7xbTyoAVHS3OpG1vg404H0CRChMKwBJZSKV9qHV9tmL9PfyR
kAaKSxlriS1F9ep+4zY8f02F2o97K3v9Exu9W9Y6UH1t1ldzG2T6+jLlqIQl2zNV
jPix/A1yZTgjek0MEZBk3soQzJJGfKhVRNrYGGVqew9H0x1mx3HVFNOY4nOZKIg0
0pVXzlalIjqEqEGaM04p4Q3sT2XRXPx/snId0rCE2PvL2e9p4vlyRQkCAwEAATAN
BgkqhkiG9w0BAQsFAAOCAQEAXY5pBTXaEtpCYIZA20JFDHKxJRlfVyxBdiy4jMbr
PUxWBicrI7fkPSlzXLhkKHMC8w6dO7WxTaAv0p0cd0wS0Hl90wFQX+D2OaMO94R+
nIqvYRTTt5kgNCdX9tsOFjJW9G91oDUyTHZBtRBaLQVWduxfCnJNzQKAzQD8V3qf
+6RDmUcTg+54+9uC8kw8qv9Dg/Dj1nMeOL/kZJ45LJG+cIb9kSZKaFupA6VK2Q/8
ZpDe9vbEAN6XiuB6l7JcXuuxagKAQrAp/Q1BTzFMdXBNNlucsfo8E8nGDEwpF/eD
dJD3Mpm+ad/kL1wwkqh1grcDXhWnzdYjC8qFx2J3+vaNfw==
-----END CERTIFICATE-----
