Certificate:
    Data:
        Version: 1 (0x0)
        Serial Number:
            ea:c5:45:66:dd:c6:72:9e
    Signature Algorithm: ecdsa-with-SHA256
        Issuer: C=US, ST=CA, L=Santa Clara, O=Real Time Innovations, CN=RTI CA/emailAddress=secure@rti.com
        Validity
            Not Before: Jun 22 21:19:35 2017 GMT
            Not After : Jun 21 21:19:35 2020 GMT
        Subject: C=US, ST=CA, L=Santa Clara, O=Real Time Innovations, CN=RTI CA/emailAddress=secure@rti.com
        Subject Public Key Info:
            Public Key Algorithm: id-ecPublicKey
                Public-Key: (256 bit)
                pub: 
                    04:72:ed:af:8f:d3:49:6d:d6:db:8d:70:aa:67:a7:
                    fd:cd:af:82:d8:91:92:a5:24:97:5d:21:ef:83:0e:
                    03:14:2f:23:97:55:32:c5:53:a9:b7:6e:e0:cc:75:
                    8b:ce:9e:20:a4:b8:2f:8c:5f:e7:d2:80:b8:9a:48:
                    f2:45:26:09:70
                ASN1 OID: prime256v1
                NIST CURVE: P-256
    Signature Algorithm: ecdsa-with-SHA256
         30:44:02:20:59:f5:81:ea:aa:48:30:89:83:67:5b:cb:ac:10:
         e5:a8:7b:8e:f5:06:0d:d0:b4:11:df:85:c8:4a:b1:d5:49:c1:
         02:20:3c:0d:33:0e:ef:a3:4b:78:04:56:c1:a1:d4:0a:4f:ac:
         29:8c:25:10:86:9c:74:88:54:a4:20:ef:b7:50:37:c9
-----BEGIN CERTIFICATE-----
MIIB8TCCAZgCCQDqxUVm3cZynjAKBggqhkjOPQQDAjCBgDELMAkGA1UEBhMCVVMx
CzAJBgNVBAgMAkNBMRQwEgYDVQQHDAtTYW50YSBDbGFyYTEeMBwGA1UECgwVUmVh
bCBUaW1lIElubm92YXRpb25zMQ8wDQYDVQQDDAZSVEkgQ0ExHTAbBgkqhkiG9w0B
CQEWDnNlY3VyZUBydGkuY29tMB4XDTE3MDYyMjIxMTkzNVoXDTIwMDYyMTIxMTkz
NVowgYAxCzAJBgNVBAYTAlVTMQswCQYDVQQIDAJDQTEUMBIGA1UEBwwLU2FudGEg
Q2xhcmExHjAcBgNVBAoMFVJlYWwgVGltZSBJbm5vdmF0aW9uczEPMA0GA1UEAwwG
UlRJIENBMR0wGwYJKoZIhvcNAQkBFg5zZWN1cmVAcnRpLmNvbTBZMBMGByqGSM49
AgEGCCqGSM49AwEHA0IABHLtr4/TSW3W241wqmen/c2vgtiRkqUkl10h74MOAxQv
I5dVMsVTqbdu4Mx1i86eIKS4L4xf59KAuJpI8kUmCXAwCgYIKoZIzj0EAwIDRwAw
RAIgWfWB6qpIMImDZ1vLrBDlqHuO9QYN0LQR34XISrHVScECIDwNMw7vo0t4BFbB
odQKT6wpjCUQhpx0iFSkIO+3UDfJ
-----END CERTIFICATE-----
