Certificate:
    Data:
        Version: 1 (0x0)
        Serial Number:
            bc:cb:0a:9e:f2:6f:26:39
    Signature Algorithm: sha256WithRSAEncryption
        Issuer: C=US, ST=CA, L=Santa Clara, O=Real Time Innovations, CN=RTI CA/emailAddress=secure@rti.com
        Validity
            Not Before: Jun 22 21:19:37 2017 GMT
            Not After : Jun 22 21:19:37 2018 GMT
        Subject: C=US, ST=CA, O=Real Time Innovations, CN=dtlsexample3/emailAddress=you@rti.com
        Subject Public Key Info:
            Public Key Algorithm: rsaEncryption
                Public-Key: (2048 bit)
                Modulus:
                    00:9b:99:7d:ff:37:b2:1b:2c:f8:e5:80:d8:fd:e7:
                    4b:fb:d1:52:6e:e6:a7:41:fa:00:a0:f8:53:fb:54:
                    14:d8:2f:cb:90:bd:e5:0d:24:44:8e:48:0e:18:ec:
                    2f:ae:3e:be:1e:d3:a0:17:86:ac:0a:eb:38:cc:77:
                    a6:31:c2:aa:89:12:59:96:13:c8:14:3b:24:08:99:
                    bd:ee:2b:29:d1:8b:c8:d2:c3:d0:49:33:84:b1:31:
                    c4:6f:06:c7:0d:f1:44:0e:7b:34:d1:db:7a:e3:77:
                    1a:42:89:12:cd:99:99:d6:e7:64:81:ce:06:76:d9:
                    af:73:b2:f7:b8:11:77:45:4c:3b:5f:5b:ac:62:92:
                    5d:ba:93:80:07:65:25:a0:0d:98:70:44:1f:64:66:
                    69:31:15:92:cf:12:62:4a:c3:71:b3:2f:1b:85:d5:
                    66:87:e4:1a:83:7e:ff:b6:f1:bb:2d:c5:7b:bd:0a:
                    cf:06:e4:8c:1b:b4:7d:6c:ab:f1:08:11:6d:73:d3:
                    f3:56:64:ea:3d:dc:44:c2:7d:8e:91:25:13:32:d6:
                    80:e9:3a:70:89:44:80:9f:fc:62:06:1a:18:7a:f8:
                    c1:ca:90:35:5c:4a:2b:f0:bc:24:5b:26:74:97:9d:
                    44:1d:0c:0a:d2:a0:ac:8b:9f:75:c8:17:cf:41:37:
                    20:ad
                Exponent: 65537 (0x10001)
    Signature Algorithm: sha256WithRSAEncryption
         30:60:29:70:83:df:2e:be:d5:80:57:60:d2:98:c9:3b:1b:c4:
         2c:8d:88:c9:17:21:d8:9b:48:cb:7d:56:d1:65:e4:ed:aa:78:
         d4:d4:67:65:3e:d8:97:78:89:40:ae:5b:35:d9:ac:7d:6a:7d:
         56:18:51:91:41:de:fa:78:96:7c:7a:07:b3:c1:9b:33:91:ce:
         a4:39:08:91:f5:a8:0c:04:8e:22:73:2b:14:a9:8e:cd:d9:06:
         56:ea:e2:9a:15:a3:52:90:5e:c4:9b:c6:5f:8c:a3:6d:cd:5c:
         c7:0f:ff:72:f4:b5:57:f6:40:ad:9b:32:49:7a:25:21:ac:f7:
         d6:8f:8a:46:35:61:fd:69:b9:76:46:7a:53:20:de:2c:22:f3:
         78:45:64:0b:4c:00:59:90:2d:bd:8b:05:e6:10:9f:84:be:28:
         36:f7:6c:2a:0e:6e:9b:74:e3:98:e5:95:48:46:ed:27:77:cb:
         4e:a5:ad:b7:56:6f:1b:35:d2:95:6f:91:f9:97:40:4a:b5:1f:
         6e:f7:00:ec:66:81:72:2b:c7:3a:36:fa:d6:d7:37:27:90:b5:
         e5:ee:19:68:ba:58:3e:fd:d0:03:e4:27:6e:23:c1:e1:67:35:
         9d:83:fd:c4:9f:ad:26:78:56:d8:78:1a:2d:f6:4a:d8:8e:6c:
         55:31:f7:02
-----BEGIN CERTIFICATE-----
MIIDajCCAlICCQC8ywqe8m8mOTANBgkqhkiG9w0BAQsFADCBgDELMAkGA1UEBhMC
VVMxCzAJBgNVBAgMAkNBMRQwEgYDVQQHDAtTYW50YSBDbGFyYTEeMBwGA1UECgwV
UmVhbCBUaW1lIElubm92YXRpb25zMQ8wDQYDVQQDDAZSVEkgQ0ExHTAbBgkqhkiG
9w0BCQEWDnNlY3VyZUBydGkuY29tMB4XDTE3MDYyMjIxMTkzN1oXDTE4MDYyMjIx
MTkzN1owbTELMAkGA1UEBhMCVVMxCzAJBgNVBAgMAkNBMR4wHAYDVQQKDBVSZWFs
IFRpbWUgSW5ub3ZhdGlvbnMxFTATBgNVBAMMDGR0bHNleGFtcGxlMzEaMBgGCSqG
SIb3DQEJARYLeW91QHJ0aS5jb20wggEiMA0GCSqGSIb3DQEBAQUAA4IBDwAwggEK
AoIBAQCbmX3/N7IbLPjlgNj950v70VJu5qdB+gCg+FP7VBTYL8uQveUNJESOSA4Y
7C+uPr4e06AXhqwK6zjMd6YxwqqJElmWE8gUOyQImb3uKynRi8jSw9BJM4SxMcRv
BscN8UQOezTR23rjdxpCiRLNmZnW52SBzgZ22a9zsve4EXdFTDtfW6xikl26k4AH
ZSWgDZhwRB9kZmkxFZLPEmJKw3GzLxuF1WaH5BqDfv+28bstxXu9Cs8G5IwbtH1s
q/EIEW1z0/NWZOo93ETCfY6RJRMy1oDpOnCJRICf/GIGGhh6+MHKkDVcSivwvCRb
JnSXnUQdDArSoKyLn3XIF89BNyCtAgMBAAEwDQYJKoZIhvcNAQELBQADggEBADBg
KXCD3y6+1YBXYNKYyTsbxCyNiMkXIdibSMt9VtFl5O2qeNTUZ2U+2Jd4iUCuWzXZ
rH1qfVYYUZFB3vp4lnx6B7PBmzORzqQ5CJH1qAwEjiJzKxSpjs3ZBlbq4poVo1KQ
XsSbxl+Mo23NXMcP/3L0tVf2QK2bMkl6JSGs99aPikY1Yf1puXZGelMg3iwi83hF
ZAtMAFmQLb2LBeYQn4S+KDb3bCoObpt045jllUhG7Sd3y06lrbdWbxs10pVvkfmX
QEq1H273AOxmgXIrxzo2+tbXNyeQteXuGWi6WD790APkJ24jweFnNZ2D/cSfrSZ4
Vth4Gi32StiObFUx9wI=
-----END CERTIFICATE-----
