Certificate:
    Data:
        Version: 1 (0x0)
        Serial Number:
            bc:cb:0a:9e:f2:6f:26:38
    Signature Algorithm: ecdsa-with-SHA256
        Issuer: C=US, ST=CA, L=Santa Clara, O=Real Time Innovations, CN=Alternative RTI CA No. 2/emailAddress=secure@rti.com
        Validity
            Not Before: Jun 22 21:19:37 2017 GMT
            Not After : Jun 22 21:19:37 2018 GMT
        Subject: C=US, ST=CA, O=Real Time Innovations, CN=dtlsexample2Alt2/emailAddress=you@rti.com
        Subject Public Key Info:
            Public Key Algorithm: rsaEncryption
                Public-Key: (2048 bit)
                Modulus:
                    00:a9:33:66:ef:88:04:d8:81:81:f3:79:94:29:12:
                    45:3f:c9:d2:4f:0c:1e:a3:f0:54:3d:dd:b8:a3:83:
                    f5:f1:34:48:a6:8b:b2:46:db:9a:65:94:53:02:5e:
                    8f:4e:94:26:dd:35:a7:10:e4:66:6f:28:e9:81:10:
                    57:93:e5:72:da:9b:44:cd:cb:f3:d5:1d:27:cc:fd:
                    85:aa:a9:aa:a4:42:05:40:e8:6d:e0:b9:0e:fd:95:
                    ae:31:72:07:ea:d7:d1:2e:b4:9e:06:28:f4:1d:bc:
                    90:3e:4a:6c:05:e6:5d:23:f0:b9:95:e8:42:7b:f3:
                    90:7d:ba:d8:96:36:e1:38:ca:37:af:40:33:47:28:
                    b6:29:73:dc:24:dd:cd:0a:ff:0c:23:7c:42:85:30:
                    71:1e:11:ec:d2:fd:f9:c4:5e:a6:bc:7e:2d:a6:9f:
                    4e:b6:0c:cd:18:8b:cf:c9:4c:9f:09:4b:39:b9:09:
                    71:e8:c4:df:23:1b:0f:9e:7e:1c:aa:10:6a:d1:99:
                    aa:ce:30:b1:ae:7e:65:b0:09:d2:53:23:53:e9:31:
                    94:91:22:45:14:81:5e:ae:6e:ad:5d:66:8f:90:c2:
                    b2:fa:d2:6c:54:be:9e:76:31:27:3b:d1:01:34:1e:
                    dc:b5:5f:15:84:e3:f9:7b:a8:b0:3f:30:4c:7f:f3:
                    00:df
                Exponent: 65537 (0x10001)
    Signature Algorithm: ecdsa-with-SHA256
         30:45:02:20:5d:6a:53:fa:ae:7b:07:40:27:5f:2d:55:00:a0:
         c3:48:c4:8f:28:1c:be:22:a0:64:b2:f8:6c:61:cc:22:e2:20:
         02:21:00:aa:db:cb:84:9b:0a:8b:1d:c2:a7:72:8f:2e:9a:74:
         6e:51:fa:50:dd:c7:12:28:46:84:6c:c2:b5:46:88:d3:27
-----BEGIN CERTIFICATE-----
MIICvzCCAmUCCQC8ywqe8m8mODAKBggqhkjOPQQDAjCBkjELMAkGA1UEBhMCVVMx
CzAJBgNVBAgMAkNBMRQwEgYDVQQHDAtTYW50YSBDbGFyYTEeMBwGA1UECgwVUmVh
bCBUaW1lIElubm92YXRpb25zMSEwHwYDVQQDDBhBbHRlcm5hdGl2ZSBSVEkgQ0Eg
Tm8uIDIxHTAbBgkqhkiG9w0BCQEWDnNlY3VyZUBydGkuY29tMB4XDTE3MDYyMjIx
MTkzN1oXDTE4MDYyMjIxMTkzN1owcTELMAkGA1UEBhMCVVMxCzAJBgNVBAgMAkNB
MR4wHAYDVQQKDBVSZWFsIFRpbWUgSW5ub3ZhdGlvbnMxGTAXBgNVBAMMEGR0bHNl
eGFtcGxlMkFsdDIxGjAYBgkqhkiG9w0BCQEWC3lvdUBydGkuY29tMIIBIjANBgkq
hkiG9w0BAQEFAAOCAQ8AMIIBCgKCAQEAqTNm74gE2IGB83mUKRJFP8nSTwweo/BU
Pd24o4P18TRIpouyRtuaZZRTAl6PTpQm3TWnEORmbyjpgRBXk+Vy2ptEzcvz1R0n
zP2FqqmqpEIFQOht4LkO/ZWuMXIH6tfRLrSeBij0HbyQPkpsBeZdI/C5lehCe/OQ
fbrYljbhOMo3r0AzRyi2KXPcJN3NCv8MI3xChTBxHhHs0v35xF6mvH4tpp9OtgzN
GIvPyUyfCUs5uQlx6MTfIxsPnn4cqhBq0ZmqzjCxrn5lsAnSUyNT6TGUkSJFFIFe
rm6tXWaPkMKy+tJsVL6edjEnO9EBNB7ctV8VhOP5e6iwPzBMf/MA3wIDAQABMAoG
CCqGSM49BAMCA0gAMEUCIF1qU/quewdAJ18tVQCgw0jEjygcviKgZLL4bGHMIuIg
AiEAqtvLhJsKix3Cp3KPLpp0blH6UN3HEihGhGzCtUaI0yc=
-----END CERTIFICATE-----
