Certificate:
    Data:
        Version: 1 (0x0)
        Serial Number:
            bc:cb:0a:9e:f2:6f:26:37
    Signature Algorithm: ecdsa-with-SHA256
        Issuer: C=US, ST=CA, L=Santa Clara, O=Real Time Innovations, CN=Alternative RTI CA No. 1/emailAddress=secure@rti.com
        Validity
            Not Before: Jun 22 21:19:37 2017 GMT
            Not After : Jun 22 21:19:37 2018 GMT
        Subject: C=US, ST=CA, O=Real Time Innovations, CN=dtlsexampleAlt1/emailAddress=me@rti.com
        Subject Public Key Info:
            Public Key Algorithm: rsaEncryption
                Public-Key: (2048 bit)
                Modulus:
                    00:b3:8e:45:1f:72:54:d6:a0:12:19:2f:00:35:1c:
                    80:31:10:4f:0b:aa:0a:e2:ab:96:27:4b:54:e0:a2:
                    2b:79:8c:ed:35:86:a2:48:cf:62:c9:df:b2:ae:f7:
                    52:a4:83:30:96:88:82:f6:5f:42:f5:f3:6a:c1:3d:
                    12:f4:04:7e:07:1d:c7:58:21:52:ab:bc:62:ee:e5:
                    e4:b7:86:34:a7:35:ba:9e:c2:4f:3c:aa:14:93:28:
                    c6:6c:11:db:2f:4b:ff:97:34:1d:36:74:9a:b7:06:
                    f0:a1:00:a8:3c:b1:f0:e5:ad:81:e0:1b:63:ce:bf:
                    c2:9b:11:af:f3:a6:5b:d8:46:63:e0:f3:bb:ea:92:
                    10:45:c4:22:44:41:9a:29:35:6b:6a:06:59:44:56:
                    d9:20:cb:23:3f:8f:f6:0c:55:5b:19:69:71:39:b8:
                    aa:6b:64:6a:b4:b9:2e:5f:9b:25:7c:6f:78:b9:fe:
                    8e:0f:50:1d:f6:09:85:8f:0a:94:bc:a6:17:9e:16:
                    47:6f:37:aa:99:6b:40:bc:b0:f6:59:e5:b4:4d:5e:
                    7b:48:0c:79:0e:9c:48:1f:90:7d:e6:99:43:60:a0:
                    20:28:89:0d:60:cc:c0:50:d3:85:a0:00:70:5d:6b:
                    27:88:45:1d:96:45:af:33:db:88:53:d4:51:72:9d:
                    e2:5b
                Exponent: 65537 (0x10001)
    Signature Algorithm: ecdsa-with-SHA256
         30:45:02:20:5f:ea:2a:1b:86:01:7a:13:e4:92:b3:71:cb:9d:
         b1:35:bf:df:fd:14:48:3a:06:f1:dc:aa:70:f2:02:ce:c8:ee:
         02:21:00:a7:f6:d7:b8:28:ee:6e:09:d9:5f:0c:f4:dd:be:e2:
         08:32:61:a0:d8:41:c2:d2:0d:00:26:e6:81:9c:79:fa:b8
-----BEGIN CERTIFICATE-----
MIICvTCCAmMCCQC8ywqe8m8mNzAKBggqhkjOPQQDAjCBkjELMAkGA1UEBhMCVVMx
CzAJBgNVBAgMAkNBMRQwEgYDVQQHDAtTYW50YSBDbGFyYTEeMBwGA1UECgwVUmVh
bCBUaW1lIElubm92YXRpb25zMSEwHwYDVQQDDBhBbHRlcm5hdGl2ZSBSVEkgQ0Eg
Tm8uIDExHTAbBgkqhkiG9w0BCQEWDnNlY3VyZUBydGkuY29tMB4XDTE3MDYyMjIx
MTkzN1oXDTE4MDYyMjIxMTkzN1owbzELMAkGA1UEBhMCVVMxCzAJBgNVBAgMAkNB
MR4wHAYDVQQKDBVSZWFsIFRpbWUgSW5ub3ZhdGlvbnMxGDAWBgNVBAMMD2R0bHNl
eGFtcGxlQWx0MTEZMBcGCSqGSIb3DQEJARYKbWVAcnRpLmNvbTCCASIwDQYJKoZI
hvcNAQEBBQADggEPADCCAQoCggEBALOORR9yVNagEhkvADUcgDEQTwuqCuKrlidL
VOCiK3mM7TWGokjPYsnfsq73UqSDMJaIgvZfQvXzasE9EvQEfgcdx1ghUqu8Yu7l
5LeGNKc1up7CTzyqFJMoxmwR2y9L/5c0HTZ0mrcG8KEAqDyx8OWtgeAbY86/wpsR
r/OmW9hGY+Dzu+qSEEXEIkRBmik1a2oGWURW2SDLIz+P9gxVWxlpcTm4qmtkarS5
Ll+bJXxveLn+jg9QHfYJhY8KlLymF54WR283qplrQLyw9lnltE1ee0gMeQ6cSB+Q
feaZQ2CgICiJDWDMwFDThaAAcF1rJ4hFHZZFrzPbiFPUUXKd4lsCAwEAATAKBggq
hkjOPQQDAgNIADBFAiBf6iobhgF6E+SSs3HLnbE1v9/9FEg6BvHcqnDyAs7I7gIh
AKf217go7m4J2V8M9N2+4ggyYaDYQcLSDQAm5oGcefq4
-----END CERTIFICATE-----
