Certificate:
    Data:
        Version: 1 (0x0)
        Serial Number:
            b3:db:62:7e:53:fc:01:09
    Signature Algorithm: ecdsa-with-SHA256
        Issuer: C=US, ST=CA, L=Santa Clara, O=Real Time Innovations, CN=RTI CA/emailAddress=secure@rti.com
        Validity
            Not Before: Jun 22 21:19:41 2017 GMT
            Not After : Jun 22 21:19:41 2018 GMT
        Subject: C=US, ST=CA, O=Real Time Innovations, CN=dtlsexampleECdsa/emailAddress=meECdsa@rti.com
        Subject Public Key Info:
            Public Key Algorithm: id-ecPublicKey
                Public-Key: (256 bit)
                pub: 
                    04:67:fc:25:78:0e:91:40:e2:09:1c:fe:75:78:a9:
                    ec:33:9f:9a:18:52:59:57:03:5e:ba:e0:b5:c7:23:
                    b4:18:b9:7c:61:89:c4:1a:7f:35:74:e3:2d:b2:b3:
                    6f:19:06:1d:aa:00:e6:04:02:92:75:08:df:92:83:
                    96:f8:1a:c7:17
                ASN1 OID: prime256v1
                NIST CURVE: P-256
    Signature Algorithm: ecdsa-with-SHA256
         30:44:02:20:11:93:04:a3:2a:36:47:bb:7e:be:29:0f:33:b7:
         e8:c6:a8:9e:62:60:5c:39:f2:f9:6a:ac:5a:64:f5:72:67:4b:
         02:20:11:ab:42:74:9d:ee:cf:56:68:f1:2c:96:f7:55:5b:e9:
         66:4c:7d:ee:62:73:9a:f6:1a:44:da:3a:a9:26:50:29
-----BEGIN CERTIFICATE-----
MIIB5TCCAYwCCQCz22J+U/wBCTAKBggqhkjOPQQDAjCBgDELMAkGA1UEBhMCVVMx
CzAJBgNVBAgMAkNBMRQwEgYDVQQHDAtTYW50YSBDbGFyYTEeMBwGA1UECgwVUmVh
bCBUaW1lIElubm92YXRpb25zMQ8wDQYDVQQDDAZSVEkgQ0ExHTAbBgkqhkiG9w0B
CQEWDnNlY3VyZUBydGkuY29tMB4XDTE3MDYyMjIxMTk0MVoXDTE4MDYyMjIxMTk0
MVowdTELMAkGA1UEBhMCVVMxCzAJBgNVBAgMAkNBMR4wHAYDVQQKDBVSZWFsIFRp
bWUgSW5ub3ZhdGlvbnMxGTAXBgNVBAMMEGR0bHNleGFtcGxlRUNkc2ExHjAcBgkq
hkiG9w0BCQEWD21lRUNkc2FAcnRpLmNvbTBZMBMGByqGSM49AgEGCCqGSM49AwEH
A0IABGf8JXgOkUDiCRz+dXip7DOfmhhSWVcDXrrgtccjtBi5fGGJxBp/NXTjLbKz
bxkGHaoA5gQCknUI35KDlvgaxxcwCgYIKoZIzj0EAwIDRwAwRAIgEZMEoyo2R7t+
vikPM7foxqieYmBcOfL5aqxaZPVyZ0sCIBGrQnSd7s9WaPEslvdVW+lmTH3uYnOa
9hpE2jqpJlAp
-----END CERTIFICATE-----
