Certificate:
    Data:
        Version: 1 (0x0)
        Serial Number:
            bc:cb:0a:9e:f2:6f:26:36
    Signature Algorithm: sha256WithRSAEncryption
        Issuer: C=US, ST=CA, L=Santa Clara, O=Real Time Innovations, CN=RTI CA/emailAddress=secure@rti.com
        Validity
            Not Before: Jun 22 21:19:36 2017 GMT
            Not After : Jun 22 21:19:36 2018 GMT
        Subject: C=US, ST=CA, O=Real Time Innovations, CN=dtlsexample2/emailAddress=you@rti.com
        Subject Public Key Info:
            Public Key Algorithm: rsaEncryption
                Public-Key: (2048 bit)
                Modulus:
                    00:c2:7a:27:9c:7a:03:ee:fc:d4:1b:55:5c:ee:5c:
                    46:a6:88:39:a0:09:1e:ee:fb:99:b4:f4:6f:65:c6:
                    60:ed:0d:af:a3:cd:3f:fe:d6:81:fb:b2:91:90:ae:
                    57:f2:6b:5a:3a:dc:a2:b1:3d:63:05:2e:91:b1:17:
                    4d:e6:c0:60:b9:18:82:89:57:82:26:9b:8f:d9:ef:
                    80:3b:f3:37:da:c3:2c:84:25:19:6c:2b:12:c7:e2:
                    fd:6b:e0:6a:8a:67:58:04:4b:16:d6:ce:a8:38:3c:
                    88:4b:87:b7:ef:1a:14:aa:d0:62:b1:4c:92:09:49:
                    42:68:e1:57:3a:ca:b9:4b:37:97:ea:dc:f5:e8:9d:
                    17:8f:7d:ec:70:95:0c:b9:06:bb:5c:74:5a:9b:77:
                    21:a1:28:3c:84:bb:e8:e5:23:7e:5d:f9:78:1b:e6:
                    bf:3c:dd:dd:0d:a2:c3:a5:8d:1d:6b:0b:bf:a4:35:
                    7d:bc:1b:2d:c3:48:0b:28:87:72:f3:06:64:87:0b:
                    df:8b:bc:e1:e0:2f:12:ea:82:0e:67:0b:05:46:fc:
                    d2:54:65:90:c8:fa:7f:7a:fb:fc:48:ea:31:8e:e3:
                    96:7c:4d:38:2d:a6:2f:a5:08:d4:e3:91:fd:cd:b3:
                    b0:71:15:23:46:ea:8a:96:ca:da:0b:54:35:d7:bd:
                    ab:0f
                Exponent: 65537 (0x10001)
    Signature Algorithm: sha256WithRSAEncryption
         6c:4f:a3:80:30:87:43:91:45:e4:3b:5a:41:e8:56:14:7c:c9:
         88:ec:d4:f6:aa:73:5d:0c:db:5e:96:d7:60:e8:27:e9:18:0e:
         ab:cb:67:30:6f:15:f3:9e:93:c5:82:4a:fb:02:a6:25:17:c8:
         00:f4:c9:f1:a4:a4:c0:08:36:db:e1:7b:98:1c:7d:9c:54:36:
         3d:5e:03:ab:c7:22:ab:1f:7d:5a:77:d0:87:d9:5b:1f:94:6d:
         94:9f:c4:36:e6:e8:1f:39:8c:39:9f:5e:62:4f:b6:69:5a:0a:
         55:ac:c2:8b:f6:fe:de:3a:e0:3e:c0:11:89:c3:b4:8b:22:3f:
         bc:5d:90:0d:36:73:c1:4b:ab:e8:e3:5d:e0:af:d2:82:7f:98:
         bf:3d:a6:0d:36:f0:1c:95:02:8e:67:b2:3f:42:b0:67:25:6c:
         6e:6c:a0:c9:35:c4:8e:83:f6:d1:0e:63:6a:4b:5b:ee:e4:56:
         80:9c:37:a0:66:65:1f:7c:b8:a9:76:05:7b:0f:f8:8e:35:79:
         ca:21:66:0a:69:48:23:12:8a:aa:18:73:4c:1d:ef:58:70:c8:
         c7:8d:c3:0c:0c:86:eb:42:df:89:e8:9e:74:de:52:37:f9:dd:
         32:86:33:b6:cc:64:09:0b:89:32:05:e0:77:d5:30:4c:81:77:
         20:32:43:ba
-----BEGIN CERTIFICATE-----
MIIDajCCAlICCQC8ywqe8m8mNjANBgkqhkiG9w0BAQsFADCBgDELMAkGA1UEBhMC
VVMxCzAJBgNVBAgMAkNBMRQwEgYDVQQHDAtTYW50YSBDbGFyYTEeMBwGA1UECgwV
UmVhbCBUaW1lIElubm92YXRpb25zMQ8wDQYDVQQDDAZSVEkgQ0ExHTAbBgkqhkiG
9w0BCQEWDnNlY3VyZUBydGkuY29tMB4XDTE3MDYyMjIxMTkzNloXDTE4MDYyMjIx
MTkzNlowbTELMAkGA1UEBhMCVVMxCzAJBgNVBAgMAkNBMR4wHAYDVQQKDBVSZWFs
IFRpbWUgSW5ub3ZhdGlvbnMxFTATBgNVBAMMDGR0bHNleGFtcGxlMjEaMBgGCSqG
SIb3DQEJARYLeW91QHJ0aS5jb20wggEiMA0GCSqGSIb3DQEBAQUAA4IBDwAwggEK
AoIBAQDCeiecegPu/NQbVVzuXEamiDmgCR7u+5m09G9lxmDtDa+jzT/+1oH7spGQ
rlfya1o63KKxPWMFLpGxF03mwGC5GIKJV4Imm4/Z74A78zfawyyEJRlsKxLH4v1r
4GqKZ1gESxbWzqg4PIhLh7fvGhSq0GKxTJIJSUJo4Vc6yrlLN5fq3PXonRePfexw
lQy5BrtcdFqbdyGhKDyEu+jlI35d+Xgb5r883d0NosOljR1rC7+kNX28Gy3DSAso
h3LzBmSHC9+LvOHgLxLqgg5nCwVG/NJUZZDI+n96+/xI6jGO45Z8TTgtpi+lCNTj
kf3Ns7BxFSNG6oqWytoLVDXXvasPAgMBAAEwDQYJKoZIhvcNAQELBQADggEBAGxP
o4Awh0ORReQ7WkHoVhR8yYjs1Paqc10M216W12DoJ+kYDqvLZzBvFfOek8WCSvsC
piUXyAD0yfGkpMAINtvhe5gcfZxUNj1eA6vHIqsffVp30IfZWx+UbZSfxDbm6B85
jDmfXmJPtmlaClWswov2/t464D7AEYnDtIsiP7xdkA02c8FLq+jjXeCv0oJ/mL89
pg028ByVAo5nsj9CsGclbG5soMk1xI6D9tEOY2pLW+7kVoCcN6BmZR98uKl2BXsP
+I41ecohZgppSCMSiqoYc0wd71hwyMeNwwwMhutC34nonnTeUjf53TKGM7bMZAkL
iTIF4HfVMEyBdyAyQ7o=
-----END CERTIFICATE-----
