Certificate:
    Data:
        Version: 1 (0x0)
        Serial Number:
            a7:f0:54:12:bb:e2:bf:f9
    Signature Algorithm: dsa_with_SHA256
        Issuer: C=US, ST=CA, L=Santa Clara, O=Real Time Innovations, CN=RTI CA/emailAddress=secure@rti.com
        Validity
            Not Before: Jun 22 21:19:41 2017 GMT
            Not After : Jun 22 21:19:41 2018 GMT
        Subject: C=US, ST=CA, O=Real Time Innovations, CN=dtlsexample3dsa/emailAddress=youdsa@rti.com
        Subject Public Key Info:
            Public Key Algorithm: dsaEncryption
                pub: 
                    00:90:4f:e9:d4:2e:e9:b0:14:f8:10:c7:cf:e6:ed:
                    b4:b9:a0:88:47:41:12:19:20:0d:df:d2:c8:5d:86:
                    d8:84:1a:2c:9e:da:b5:e9:fe:9c:c2:8b:81:38:e3:
                    03:19:b2:98:c5:7c:97:b0:91:25:b1:1e:b5:43:c6:
                    f3:ae:3c:66:29:5b:16:47:07:87:0a:5c:23:0a:ac:
                    e5:c6:e7:9d:41:cb:1a:99:b2:ef:e8:ed:ad:ad:3a:
                    1a:f3:b8:b3:be:8b:af:57:f2:af:54:1b:89:03:42:
                    e1:07:13:c9:01:b8:24:47:fe:58:bb:f9:bf:b5:eb:
                    95:ec:6f:a5:e8:0f:1a:50:c9:68:9c:f4:2b:b4:9c:
                    84:e6:c4:d8:b5:81:54:65:5e:58:f3:c8:d7:8c:06:
                    ee:ca:5d:74:50:3f:73:e8:71:04:15:68:2d:55:50:
                    67:1f:5c:b4:31:25:f9:fe:24:cf:6b:91:44:2d:d5:
                    0a:00:a1:aa:0a:dc:da:99:cb:5b:c6:20:54:ba:86:
                    fb:b1:e6:2d:4d:f2:3f:12:99:31:ef:2f:c0:5b:c7:
                    b5:a9:ca:63:73:3b:c7:c6:90:c2:39:9d:f4:41:de:
                    db:f2:57:7c:c4:b9:af:4d:95:eb:e4:73:81:0c:16:
                    9e:88:0b:8b:f6:ad:03:2b:4d:1e:fc:37:f7:6f:32:
                    b4:50
                P:   
                    00:f9:f3:ea:11:ff:79:ea:08:6a:9c:a2:67:39:55:
                    b1:ba:85:5b:9e:3f:ae:9f:fe:90:ea:28:25:74:34:
                    07:61:fc:7c:19:a9:3b:83:10:f4:7a:71:4b:5f:68:
                    86:1f:e5:b1:0f:bf:df:a5:36:3e:1b:0c:1e:02:23:
                    21:5b:68:a4:df:e3:46:2a:d7:af:80:8b:ec:59:9b:
                    48:b9:af:ad:ff:80:ad:93:0b:6e:03:66:06:e0:0d:
                    91:46:39:c4:0a:c1:0d:e9:79:84:15:a7:f3:bc:4c:
                    ed:e6:c1:55:56:72:d4:ad:45:56:65:96:b5:59:04:
                    e4:99:49:33:56:57:b8:ff:d6:da:a7:62:e5:15:94:
                    8c:06:b7:35:48:49:7c:c9:c9:77:c5:38:a6:0f:75:
                    6c:ed:a3:ee:17:4e:af:8c:57:b4:50:cd:fb:93:e3:
                    39:44:9b:cf:6d:aa:8c:f5:f7:95:3e:7d:d5:0b:41:
                    6e:ad:91:de:da:d4:72:c9:a5:b3:75:f3:b0:2b:3a:
                    d3:0a:45:a9:4d:6e:13:b1:5b:95:0e:7d:ff:87:52:
                    6b:87:bd:ed:91:2b:4f:d9:76:a8:0f:24:4b:17:a2:
                    3d:ee:fc:02:0c:25:c1:c0:da:12:f1:f9:cc:64:00:
                    73:47:5c:87:64:7b:a1:47:ce:10:83:74:c4:e4:a1:
                    b2:c1
                Q:   
                    00:e5:5c:50:00:bb:0d:11:79:e3:13:ba:91:44:07:
                    e8:ab:68:5b:e7:77:5c:be:6e:15:f9:df:35:c9:42:
                    e1:53:3d
                G:   
                    32:8f:de:50:dc:16:5a:1d:7d:16:cf:2d:89:c0:8d:
                    d6:3e:60:28:b8:62:9c:87:a1:1e:1c:06:5f:1b:4a:
                    10:16:63:f8:e7:85:d2:47:bc:41:34:ba:01:f6:43:
                    91:44:f6:81:6a:34:43:12:71:6a:c9:45:34:f6:60:
                    0f:00:af:52:55:09:97:da:e1:f6:fa:f3:b0:24:b7:
                    cf:23:4a:25:35:d9:93:eb:9a:d2:b2:9d:7e:dc:c6:
                    b8:86:f7:f6:6b:1b:6b:18:9e:d6:6e:41:e8:9c:e2:
                    1b:e5:d2:aa:f7:b6:b1:ad:87:a1:54:0d:8f:ce:60:
                    44:d9:d6:18:fe:be:c8:0a:06:0b:78:2c:47:81:97:
                    58:54:dc:d4:e6:8b:b4:eb:b8:43:8c:b5:87:7e:36:
                    db:a4:86:34:02:2a:83:f6:15:fa:c8:05:ae:8e:b9:
                    56:c4:68:25:55:61:64:1e:76:45:cc:8a:d3:46:bd:
                    0d:a2:55:c6:c3:0a:c7:b7:50:ef:bd:99:ec:cb:cb:
                    82:1d:04:1e:e6:d7:e5:30:4f:dd:18:77:cd:bd:89:
                    a2:f4:ef:ce:e6:05:5d:7b:62:1d:2d:c7:25:11:dc:
                    42:34:16:4e:c1:f5:bd:0d:16:2a:8c:2c:6e:64:4c:
                    ad:03:0f:01:5b:df:72:96:71:24:96:83:0c:37:f2:
                    b2
    Signature Algorithm: dsa_with_SHA256
         r:   
             05:e0:93:2a:a4:0e:b7:04:bc:52:39:bf:41:ac:13:
             c1:3c:4f:d5:59:75:e4:c7:2b:d9:37:10:53:a1:29:
             97:18
         s:   
             00:8f:cc:56:e8:08:5d:3e:3e:a9:55:b6:aa:0c:0b:
             10:70:23:02:48:e1:29:11:c3:20:ce:5f:a7:57:02:
             95:cc:7b
-----BEGIN CERTIFICATE-----
MIIE1jCCBHsCCQCn8FQSu+K/+TALBglghkgBZQMEAwIwgYAxCzAJBgNVBAYTAlVT
MQswCQYDVQQIDAJDQTEUMBIGA1UEBwwLU2FudGEgQ2xhcmExHjAcBgNVBAoMFVJl
YWwgVGltZSBJbm5vdmF0aW9uczEPMA0GA1UEAwwGUlRJIENBMR0wGwYJKoZIhvcN
AQkBFg5zZWN1cmVAcnRpLmNvbTAeFw0xNzA2MjIyMTE5NDFaFw0xODA2MjIyMTE5
NDFaMHMxCzAJBgNVBAYTAlVTMQswCQYDVQQIDAJDQTEeMBwGA1UECgwVUmVhbCBU
aW1lIElubm92YXRpb25zMRgwFgYDVQQDDA9kdGxzZXhhbXBsZTNkc2ExHTAbBgkq
hkiG9w0BCQEWDnlvdWRzYUBydGkuY29tMIIDRzCCAjkGByqGSM44BAEwggIsAoIB
AQD58+oR/3nqCGqcomc5VbG6hVueP66f/pDqKCV0NAdh/HwZqTuDEPR6cUtfaIYf
5bEPv9+lNj4bDB4CIyFbaKTf40Yq16+Ai+xZm0i5r63/gK2TC24DZgbgDZFGOcQK
wQ3peYQVp/O8TO3mwVVWctStRVZllrVZBOSZSTNWV7j/1tqnYuUVlIwGtzVISXzJ
yXfFOKYPdWzto+4XTq+MV7RQzfuT4zlEm89tqoz195U+fdULQW6tkd7a1HLJpbN1
87ArOtMKRalNbhOxW5UOff+HUmuHve2RK0/ZdqgPJEsXoj3u/AIMJcHA2hLx+cxk
AHNHXIdke6FHzhCDdMTkobLBAiEA5VxQALsNEXnjE7qRRAfoq2hb53dcvm4V+d81
yULhUz0CggEAMo/eUNwWWh19Fs8ticCN1j5gKLhinIehHhwGXxtKEBZj+OeF0ke8
QTS6AfZDkUT2gWo0QxJxaslFNPZgDwCvUlUJl9rh9vrzsCS3zyNKJTXZk+ua0rKd
ftzGuIb39msbaxie1m5B6JziG+XSqve2sa2HoVQNj85gRNnWGP6+yAoGC3gsR4GX
WFTc1OaLtOu4Q4y1h34226SGNAIqg/YV+sgFro65VsRoJVVhZB52RcyK00a9DaJV
xsMKx7dQ772Z7MvLgh0EHubX5TBP3Rh3zb2JovTvzuYFXXtiHS3HJRHcQjQWTsH1
vQ0WKowsbmRMrQMPAVvfcpZxJJaDDDfysgOCAQYAAoIBAQCQT+nULumwFPgQx8/m
7bS5oIhHQRIZIA3f0shdhtiEGiye2rXp/pzCi4E44wMZspjFfJewkSWxHrVDxvOu
PGYpWxZHB4cKXCMKrOXG551ByxqZsu/o7a2tOhrzuLO+i69X8q9UG4kDQuEHE8kB
uCRH/li7+b+165Xsb6XoDxpQyWic9Cu0nITmxNi1gVRlXljzyNeMBu7KXXRQP3Po
cQQVaC1VUGcfXLQxJfn+JM9rkUQt1QoAoaoK3NqZy1vGIFS6hvux5i1N8j8SmTHv
L8Bbx7WpymNzO8fGkMI5nfRB3tvyV3zEua9Nlevkc4EMFp6IC4v2rQMrTR78N/dv
MrRQMAsGCWCGSAFlAwQDAgNIADBFAiAF4JMqpA63BLxSOb9BrBPBPE/VWXXkxyvZ
NxBToSmXGAIhAI/MVugIXT4+qVW2qgwLEHAjAkjhKRHDIM5fp1cClcx7
-----END CERTIFICATE-----
