Certificate:
    Data:
        Version: 1 (0x0)
        Serial Number:
            b3:db:62:7e:53:fc:01:0a
    Signature Algorithm: ecdsa-with-SHA256
        Issuer: C=US, ST=CA, L=Santa Clara, O=Real Time Innovations, CN=RTI CA/emailAddress=secure@rti.com
        Validity
            Not Before: Jun 22 21:19:41 2017 GMT
            Not After : Jun 22 21:19:41 2018 GMT
        Subject: C=US, ST=CA, O=Real Time Innovations, CN=dtlsexample2ECdsa/emailAddress=youECdsa@rti.com
        Subject Public Key Info:
            Public Key Algorithm: id-ecPublicKey
                Public-Key: (256 bit)
                pub: 
                    04:79:2c:f7:42:23:21:a4:3a:f7:da:2f:1b:91:74:
                    5e:a6:ab:be:77:e9:f6:cd:03:30:fe:64:96:e8:7a:
                    34:1b:a2:93:d2:fd:cc:48:7e:ce:60:cd:bd:dc:33:
                    de:6d:0c:d4:72:31:73:33:31:a2:06:ea:06:3e:38:
                    21:5d:1f:08:9c
                ASN1 OID: prime256v1
                NIST CURVE: P-256
    Signature Algorithm: ecdsa-with-SHA256
         30:45:02:20:17:7a:bf:11:b7:b7:da:3e:12:f9:7c:f1:d2:8b:
         f6:87:e0:0b:33:54:5f:55:51:1e:a2:5c:53:c6:cb:53:2e:2d:
         02:21:00:ed:4b:b9:14:b4:27:09:11:5a:8e:a8:f3:22:99:95:
         90:36:af:d5:19:da:b9:bd:c7:7d:cd:a4:ef:1f:a3:ab:5e
-----BEGIN CERTIFICATE-----
MIIB6DCCAY4CCQCz22J+U/wBCjAKBggqhkjOPQQDAjCBgDELMAkGA1UEBhMCVVMx
CzAJBgNVBAgMAkNBMRQwEgYDVQQHDAtTYW50YSBDbGFyYTEeMBwGA1UECgwVUmVh
bCBUaW1lIElubm92YXRpb25zMQ8wDQYDVQQDDAZSVEkgQ0ExHTAbBgkqhkiG9w0B
CQEWDnNlY3VyZUBydGkuY29tMB4XDTE3MDYyMjIxMTk0MVoXDTE4MDYyMjIxMTk0
MVowdzELMAkGA1UEBhMCVVMxCzAJBgNVBAgMAkNBMR4wHAYDVQQKDBVSZWFsIFRp
bWUgSW5ub3ZhdGlvbnMxGjAYBgNVBAMMEWR0bHNleGFtcGxlMkVDZHNhMR8wHQYJ
KoZIhvcNAQkBFhB5b3VFQ2RzYUBydGkuY29tMFkwEwYHKoZIzj0CAQYIKoZIzj0D
AQcDQgAEeSz3QiMhpDr32i8bkXRepqu+d+n2zQMw/mSW6Ho0G6KT0v3MSH7OYM29
3DPebQzUcjFzMzGiBuoGPjghXR8InDAKBggqhkjOPQQDAgNIADBFAiAXer8Rt7fa
PhL5fPHSi/aH4AszVF9VUR6iXFPGy1MuLQIhAO1LuRS0JwkRWo6o8yKZlZA2r9UZ
2rm9x33NpO8fo6te
-----END CERTIFICATE-----
