Certificate:
    Data:
        Version: 1 (0x0)
        Serial Number:
            bc:cb:0a:9e:f2:6f:26:35
    Signature Algorithm: sha256WithRSAEncryption
        Issuer: C=US, ST=CA, L=Santa Clara, O=Real Time Innovations, CN=RTI CA/emailAddress=secure@rti.com
        Validity
            Not Before: Jun 22 21:19:36 2017 GMT
            Not After : Jun 22 21:19:36 2018 GMT
        Subject: C=US, ST=CA, O=Real Time Innovations, CN=dtlsexample/emailAddress=me@rti.com
        Subject Public Key Info:
            Public Key Algorithm: rsaEncryption
                Public-Key: (2048 bit)
                Modulus:
                    00:bb:72:a7:21:0e:86:3a:89:13:84:69:fe:bd:ae:
                    31:97:f0:4f:71:8a:cc:ec:a2:d0:64:3a:fc:a1:69:
                    4a:72:67:f7:c3:7f:b9:52:09:50:c7:bc:49:8b:55:
                    a6:87:97:a0:43:3f:f2:dc:d1:9d:f4:03:54:de:9b:
                    bd:52:d5:9b:ca:f5:69:64:fc:8b:9f:32:87:bc:95:
                    ca:99:f8:06:7f:e4:cf:96:83:c0:1e:e8:5c:a9:18:
                    4d:b3:86:90:05:4a:2e:15:6a:ee:b3:62:ed:22:eb:
                    bf:49:db:a2:17:0e:5a:1c:f3:99:2f:62:53:ca:e4:
                    78:3b:e0:cb:e5:3e:46:98:2e:f6:85:4d:98:51:db:
                    e1:d2:63:ed:cb:bb:c8:4d:3d:82:6d:00:eb:7f:2f:
                    b2:71:33:4b:29:e9:ad:69:2b:56:1a:62:17:b0:07:
                    66:08:db:a6:56:d1:e9:df:5a:44:c2:6c:dc:af:1e:
                    bb:9c:24:d5:e5:72:04:f4:5a:6f:d2:ba:ca:c9:65:
                    43:82:a8:e1:74:0c:5a:0d:56:1c:a2:41:59:3b:1b:
                    8a:26:02:95:51:a0:df:16:3b:75:e1:f8:38:07:18:
                    7a:b3:59:8a:b4:67:07:55:a8:d1:25:ae:3b:b2:90:
                    21:3d:05:01:42:ce:a0:cb:1e:8f:34:78:74:cc:9a:
                    e8:eb
                Exponent: 65537 (0x10001)
    Signature Algorithm: sha256WithRSAEncryption
         7b:68:85:72:47:70:52:49:01:c3:f5:65:2b:69:08:cf:24:f1:
         9f:e6:b3:71:91:6d:84:ad:70:4e:55:ef:c7:04:7e:ba:03:17:
         ed:01:c7:7f:5d:44:05:7b:0b:f1:f8:22:5a:e5:1e:eb:4a:e3:
         08:85:68:43:fa:30:c8:62:d7:c4:8f:84:fd:e6:d8:c6:a3:3b:
         e5:88:04:53:b8:a4:a2:d0:d3:9c:e7:c8:54:af:5c:5f:a0:61:
         b2:17:e8:9a:bf:38:11:b8:b0:f0:f4:a8:85:61:f4:fd:9a:e4:
         2f:ef:e2:96:23:85:69:95:8e:6e:e0:59:ca:27:56:ce:2e:7c:
         42:e2:29:a1:a3:81:b7:13:bb:1d:46:3f:55:ac:29:a8:75:f4:
         38:90:08:70:f5:98:c2:c8:2d:bf:0d:bc:f8:82:d1:b0:36:dc:
         1e:ad:79:a6:51:2c:7e:8b:6b:51:81:1b:86:56:13:42:ce:4e:
         ef:51:03:6f:d2:07:1f:4c:a0:63:8c:dc:cf:7a:8b:d4:d4:af:
         98:ff:5d:66:2f:c3:52:39:7e:15:e3:54:c5:a4:f6:c1:5b:e0:
         fb:1c:80:93:81:5b:7c:58:c7:7a:85:12:f6:95:76:66:11:de:
         fe:6e:9e:14:fd:73:f4:ae:81:73:88:97:a7:25:14:1e:db:09:
         ff:15:a2:77
-----BEGIN CERTIFICATE-----
MIIDaDCCAlACCQC8ywqe8m8mNTANBgkqhkiG9w0BAQsFADCBgDELMAkGA1UEBhMC
VVMxCzAJBgNVBAgMAkNBMRQwEgYDVQQHDAtTYW50YSBDbGFyYTEeMBwGA1UECgwV
UmVhbCBUaW1lIElubm92YXRpb25zMQ8wDQYDVQQDDAZSVEkgQ0ExHTAbBgkqhkiG
9w0BCQEWDnNlY3VyZUBydGkuY29tMB4XDTE3MDYyMjIxMTkzNloXDTE4MDYyMjIx
MTkzNlowazELMAkGA1UEBhMCVVMxCzAJBgNVBAgMAkNBMR4wHAYDVQQKDBVSZWFs
IFRpbWUgSW5ub3ZhdGlvbnMxFDASBgNVBAMMC2R0bHNleGFtcGxlMRkwFwYJKoZI
hvcNAQkBFgptZUBydGkuY29tMIIBIjANBgkqhkiG9w0BAQEFAAOCAQ8AMIIBCgKC
AQEAu3KnIQ6GOokThGn+va4xl/BPcYrM7KLQZDr8oWlKcmf3w3+5UglQx7xJi1Wm
h5egQz/y3NGd9ANU3pu9UtWbyvVpZPyLnzKHvJXKmfgGf+TPloPAHuhcqRhNs4aQ
BUouFWrus2LtIuu/SduiFw5aHPOZL2JTyuR4O+DL5T5GmC72hU2YUdvh0mPty7vI
TT2CbQDrfy+ycTNLKemtaStWGmIXsAdmCNumVtHp31pEwmzcrx67nCTV5XIE9Fpv
0rrKyWVDgqjhdAxaDVYcokFZOxuKJgKVUaDfFjt14fg4Bxh6s1mKtGcHVajRJa47
spAhPQUBQs6gyx6PNHh0zJro6wIDAQABMA0GCSqGSIb3DQEBCwUAA4IBAQB7aIVy
R3BSSQHD9WUraQjPJPGf5rNxkW2ErXBOVe/HBH66AxftAcd/XUQFewvx+CJa5R7r
SuMIhWhD+jDIYtfEj4T95tjGozvliARTuKSi0NOc58hUr1xfoGGyF+iavzgRuLDw
9KiFYfT9muQv7+KWI4VplY5u4FnKJ1bOLnxC4imho4G3E7sdRj9VrCmodfQ4kAhw
9ZjCyC2/Dbz4gtGwNtwerXmmUSx+i2tRgRuGVhNCzk7vUQNv0gcfTKBjjNzPeovU
1K+Y/11mL8NSOX4V41TFpPbBW+D7HICTgVt8WMd6hRL2lXZmEd7+bp4U/XP0roFz
iJenJRQe2wn/FaJ3
-----END CERTIFICATE-----
