Certificate:
    Data:
        Version: 1 (0x0)
        Serial Number:
            a7:f0:54:12:bb:e2:bf:f7
    Signature Algorithm: dsa_with_SHA256
        Issuer: C=US, ST=CA, L=Santa Clara, O=Real Time Innovations, CN=RTI CA/emailAddress=secure@rti.com
        Validity
            Not Before: Jun 22 21:19:38 2017 GMT
            Not After : Jun 22 21:19:38 2018 GMT
        Subject: C=US, ST=CA, O=Real Time Innovations, CN=dtlsexampledsa/emailAddress=medsa@rti.com
        Subject Public Key Info:
            Public Key Algorithm: dsaEncryption
                pub: 
                    3a:21:5c:37:22:b0:47:7d:08:1e:ad:56:02:d2:8f:
                    ec:11:f5:30:3c:9d:1b:29:5e:a4:8e:a2:61:5b:6e:
                    cd:e9:c8:aa:72:42:df:45:65:c5:76:7d:26:b7:2e:
                    2a:97:7b:89:ee:7b:9b:26:8a:46:33:10:ea:26:85:
                    e3:d2:61:6c:df:5b:42:2d:45:80:9c:63:81:d2:80:
                    87:a5:15:d1:76:40:85:8c:64:5c:92:d1:d5:09:30:
                    89:31:cf:c9:87:63:10:6a:68:de:8f:89:5e:87:b6:
                    a4:5b:38:04:cb:90:b3:60:24:0e:32:80:ea:22:8c:
                    d9:a7:45:51:4c:f0:d8:29:e3:da:52:0a:4b:38:14:
                    4a:d8:b0:65:8f:79:19:6d:65:85:f1:7e:ef:f0:35:
                    db:ac:3a:67:44:c7:7a:94:1e:8c:a5:03:cb:95:e3:
                    66:bf:a1:89:99:02:13:ff:75:1e:76:54:2d:49:74:
                    23:0e:37:ff:a4:64:1c:40:d9:f7:d7:0a:cc:92:75:
                    13:6c:af:df:60:d1:59:9d:d6:2d:a0:fd:fd:60:ef:
                    20:20:b9:a6:8a:e3:ec:e5:c1:2c:cc:01:ca:4e:82:
                    f2:32:74:fa:cf:20:15:17:c1:ef:3c:2c:7e:3c:81:
                    6d:3f:d6:3c:80:b5:13:c1:bf:20:f0:46:a7:97:aa:
                    4c
                P:   
                    00:a0:bd:99:9b:61:44:60:94:92:f4:46:a0:98:13:
                    c8:9b:2d:d9:c2:52:5f:7a:b9:4f:c1:8d:a7:6e:68:
                    0f:0e:21:48:c2:9f:a0:e0:36:27:ea:36:72:b1:9d:
                    2a:f8:1e:29:05:56:74:22:9b:16:c3:90:53:c9:68:
                    82:f9:76:45:9f:2e:4c:75:06:d1:f3:92:db:9e:7f:
                    12:96:45:fb:5d:82:cf:5a:54:0b:44:71:21:ed:27:
                    d2:3e:c9:f2:46:a3:aa:b7:b0:95:dc:b0:76:aa:33:
                    24:05:6c:f5:fd:55:90:b0:5c:01:59:e5:2e:f7:25:
                    b2:6f:fc:67:6d:c1:f1:78:76:9e:aa:c7:cd:cf:cc:
                    0f:55:d4:4e:33:84:cd:74:3c:c7:12:ed:00:47:52:
                    67:93:6d:52:8c:2f:47:af:e4:ec:a6:3a:23:34:b9:
                    3b:4b:96:32:4d:e3:90:cd:d5:34:21:ca:f0:6d:7f:
                    83:c8:6e:f0:47:36:cc:64:ff:91:19:b6:56:61:f7:
                    0f:0f:0a:b6:be:0a:80:82:a5:0e:95:29:26:96:91:
                    59:14:31:01:f6:b2:5f:55:ab:eb:08:ed:dc:0f:12:
                    96:0a:10:39:ea:69:94:3e:4e:3f:96:b4:f9:d6:18:
                    01:43:46:e6:ff:b4:c1:c5:cf:7c:0b:1d:8c:95:d5:
                    02:b1
                Q:   
                    00:c9:18:07:2e:c2:e4:f3:fc:69:c5:70:a6:2d:f8:
                    3c:5d:eb:87:20:ed:b6:e2:d2:ea:85:f9:c7:f7:ee:
                    49:6b:6f
                G:   
                    4f:62:ef:a1:ff:aa:23:19:1d:7b:9d:2e:ae:7e:69:
                    ef:b3:74:c8:62:4d:d1:8d:12:34:a3:4c:a8:b6:99:
                    e8:d6:dd:18:42:25:18:57:96:7a:85:4a:ca:f7:4c:
                    bb:91:31:b8:e4:72:b1:62:10:c3:52:3f:32:85:95:
                    f6:af:3f:d5:f1:30:2f:1e:51:cb:3d:2e:be:75:01:
                    cd:d1:2b:95:75:df:eb:ee:58:18:23:38:1c:d7:e0:
                    10:14:67:78:fe:6a:8f:7b:bd:11:08:8f:bc:1a:17:
                    72:6f:2b:48:fe:86:b4:e6:86:fa:18:82:3a:8d:60:
                    26:ea:db:25:a1:d6:1d:9a:1b:45:7e:57:00:5a:17:
                    7f:65:88:d1:88:91:b6:78:97:46:e1:37:eb:58:a1:
                    69:52:c1:05:72:52:e8:db:df:b5:96:70:02:b5:d3:
                    85:65:53:15:5f:ed:31:8a:f4:6f:f8:d8:50:74:17:
                    9d:1e:fa:e7:32:7b:70:a8:f8:b7:60:21:a6:d9:d4:
                    3a:3e:82:5f:9f:df:7b:91:3a:39:b7:4f:87:20:ac:
                    d6:ce:69:ef:f9:e1:59:40:93:99:d8:0d:5f:6e:ce:
                    fa:f4:50:0f:77:e0:2f:a2:94:86:fb:45:01:4b:31:
                    d1:f8:3c:62:04:b4:3e:6e:e8:0e:f8:d0:cb:88:6e:
                    6a
    Signature Algorithm: dsa_with_SHA256
         r:   
             09:53:cf:ec:ef:ad:08:de:62:00:25:20:22:85:be:
             75:87:18:4b:54:8d:18:da:a4:2f:68:16:c7:83:8f:
             95:1f
         s:   
             4a:17:a4:55:d7:52:3e:cd:46:8f:eb:3b:c5:27:a1:
             5a:da:d1:68:9d:27:24:ab:17:9c:92:c0:eb:0f:2b:
             8d:f1
-----BEGIN CERTIFICATE-----
MIIE0jCCBHgCCQCn8FQSu+K/9zALBglghkgBZQMEAwIwgYAxCzAJBgNVBAYTAlVT
MQswCQYDVQQIDAJDQTEUMBIGA1UEBwwLU2FudGEgQ2xhcmExHjAcBgNVBAoMFVJl
YWwgVGltZSBJbm5vdmF0aW9uczEPMA0GA1UEAwwGUlRJIENBMR0wGwYJKoZIhvcN
AQkBFg5zZWN1cmVAcnRpLmNvbTAeFw0xNzA2MjIyMTE5MzhaFw0xODA2MjIyMTE5
MzhaMHExCzAJBgNVBAYTAlVTMQswCQYDVQQIDAJDQTEeMBwGA1UECgwVUmVhbCBU
aW1lIElubm92YXRpb25zMRcwFQYDVQQDDA5kdGxzZXhhbXBsZWRzYTEcMBoGCSqG
SIb3DQEJARYNbWVkc2FAcnRpLmNvbTCCA0YwggI5BgcqhkjOOAQBMIICLAKCAQEA
oL2Zm2FEYJSS9EagmBPImy3ZwlJferlPwY2nbmgPDiFIwp+g4DYn6jZysZ0q+B4p
BVZ0IpsWw5BTyWiC+XZFny5MdQbR85Lbnn8SlkX7XYLPWlQLRHEh7SfSPsnyRqOq
t7CV3LB2qjMkBWz1/VWQsFwBWeUu9yWyb/xnbcHxeHaeqsfNz8wPVdROM4TNdDzH
Eu0AR1Jnk21SjC9Hr+TspjojNLk7S5YyTeOQzdU0IcrwbX+DyG7wRzbMZP+RGbZW
YfcPDwq2vgqAgqUOlSkmlpFZFDEB9rJfVavrCO3cDxKWChA56mmUPk4/lrT51hgB
Q0bm/7TBxc98Cx2MldUCsQIhAMkYBy7C5PP8acVwpi34PF3rhyDttuLS6oX5x/fu
SWtvAoIBAE9i76H/qiMZHXudLq5+ae+zdMhiTdGNEjSjTKi2mejW3RhCJRhXlnqF
Ssr3TLuRMbjkcrFiEMNSPzKFlfavP9XxMC8eUcs9Lr51Ac3RK5V13+vuWBgjOBzX
4BAUZ3j+ao97vREIj7waF3JvK0j+hrTmhvoYgjqNYCbq2yWh1h2aG0V+VwBaF39l
iNGIkbZ4l0bhN+tYoWlSwQVyUujb37WWcAK104VlUxVf7TGK9G/42FB0F50e+ucy
e3Co+LdgIabZ1Do+gl+f33uROjm3T4cgrNbOae/54VlAk5nYDV9uzvr0UA934C+i
lIb7RQFLMdH4PGIEtD5u6A740MuIbmoDggEFAAKCAQA6IVw3IrBHfQgerVYC0o/s
EfUwPJ0bKV6kjqJhW27N6ciqckLfRWXFdn0mty4ql3uJ7nubJopGMxDqJoXj0mFs
31tCLUWAnGOB0oCHpRXRdkCFjGRcktHVCTCJMc/Jh2MQamjej4leh7akWzgEy5Cz
YCQOMoDqIozZp0VRTPDYKePaUgpLOBRK2LBlj3kZbWWF8X7v8DXbrDpnRMd6lB6M
pQPLleNmv6GJmQIT/3UedlQtSXQjDjf/pGQcQNn31wrMknUTbK/fYNFZndYtoP39
YO8gILmmiuPs5cEszAHKToLyMnT6zyAVF8HvPCx+PIFtP9Y8gLUTwb8g8Eanl6pM
MAsGCWCGSAFlAwQDAgNHADBEAiAJU8/s760I3mIAJSAihb51hxhLVI0Y2qQvaBbH
g4+VHwIgShekVddSPs1Gj+s7xSehWtrRaJ0nJKsXnJLA6w8rjfE=
-----END CERTIFICATE-----
