Certificate:
    Data:
        Version: 1 (0x0)
        Serial Number:
            b3:db:62:7e:53:fc:01:0b
    Signature Algorithm: ecdsa-with-SHA256
        Issuer: C=US, ST=CA, L=Santa Clara, O=Real Time Innovations, CN=RTI CA/emailAddress=secure@rti.com
        Validity
            Not Before: Jun 22 21:19:42 2017 GMT
            Not After : Jun 22 21:19:42 2018 GMT
        Subject: C=US, ST=CA, O=Real Time Innovations, CN=dtlsexample3ECdsa/emailAddress=youECdsa@rti.com
        Subject Public Key Info:
            Public Key Algorithm: id-ecPublicKey
                Public-Key: (256 bit)
                pub: 
                    04:d3:5b:8f:84:78:24:cd:48:04:01:af:d6:79:b0:
                    2d:ba:08:7f:7d:19:a3:a1:77:aa:8f:37:33:67:b1:
                    a5:8e:a9:ab:a9:c3:ea:f9:fc:e7:eb:46:77:e7:ba:
                    aa:c4:e9:60:25:e5:f8:4f:02:4f:88:94:26:d7:30:
                    15:a9:4c:64:77
                ASN1 OID: prime256v1
                NIST CURVE: P-256
    Signature Algorithm: ecdsa-with-SHA256
         30:45:02:21:00:e1:8a:34:fa:c8:ac:76:57:2a:9e:5d:17:01:
         5e:38:6a:30:8b:75:60:7c:a9:bf:09:29:43:aa:95:d6:80:9f:
         ed:02:20:0d:ff:42:44:19:c0:91:2b:c0:42:a5:03:57:a5:d3:
         5c:2f:6b:a1:3e:85:82:36:05:12:d5:3f:c6:e5:08:ef:1c
-----BEGIN CERTIFICATE-----
MIIB6DCCAY4CCQCz22J+U/wBCzAKBggqhkjOPQQDAjCBgDELMAkGA1UEBhMCVVMx
CzAJBgNVBAgMAkNBMRQwEgYDVQQHDAtTYW50YSBDbGFyYTEeMBwGA1UECgwVUmVh
bCBUaW1lIElubm92YXRpb25zMQ8wDQYDVQQDDAZSVEkgQ0ExHTAbBgkqhkiG9w0B
CQEWDnNlY3VyZUBydGkuY29tMB4XDTE3MDYyMjIxMTk0MloXDTE4MDYyMjIxMTk0
MlowdzELMAkGA1UEBhMCVVMxCzAJBgNVBAgMAkNBMR4wHAYDVQQKDBVSZWFsIFRp
bWUgSW5ub3ZhdGlvbnMxGjAYBgNVBAMMEWR0bHNleGFtcGxlM0VDZHNhMR8wHQYJ
KoZIhvcNAQkBFhB5b3VFQ2RzYUBydGkuY29tMFkwEwYHKoZIzj0CAQYIKoZIzj0D
AQcDQgAE01uPhHgkzUgEAa/WebAtugh/fRmjoXeqjzczZ7GljqmrqcPq+fzn60Z3
57qqxOlgJeX4TwJPiJQm1zAVqUxkdzAKBggqhkjOPQQDAgNIADBFAiEA4Yo0+sis
dlcqnl0XAV44ajCLdWB8qb8JKUOqldaAn+0CIA3/QkQZwJErwEKlA1el01wva6E+
hYI2BRLVP8blCO8c
-----END CERTIFICATE-----
