Certificate:
    Data:
        Version: 1 (0x0)
        Serial Number:
            a7:f0:54:12:bb:e2:bf:f8
    Signature Algorithm: dsa_with_SHA256
        Issuer: C=US, ST=CA, L=Santa Clara, O=Real Time Innovations, CN=RTI CA/emailAddress=secure@rti.com
        Validity
            Not Before: Jun 22 21:19:39 2017 GMT
            Not After : Jun 22 21:19:39 2018 GMT
        Subject: C=US, ST=CA, O=Real Time Innovations, CN=dtlsexample2dsa/emailAddress=youdsa@rti.com
        Subject Public Key Info:
            Public Key Algorithm: dsaEncryption
                pub: 
                    05:4f:d0:0e:c6:e5:a0:3d:22:7d:e5:b6:ec:bd:96:
                    40:8a:7d:0e:e4:20:66:3e:93:a4:e2:f0:20:f8:35:
                    fa:de:7f:ae:c3:1b:fe:69:b7:95:09:14:99:61:a4:
                    cb:48:89:15:6d:f5:d7:dc:18:03:b6:24:20:58:91:
                    c2:94:ef:d6:db:d9:cf:aa:35:99:d7:92:98:3b:08:
                    89:68:b4:4d:d8:04:c0:84:54:01:4e:f4:bc:4d:fe:
                    12:27:bf:3f:f4:84:21:06:31:c6:f9:af:96:8d:01:
                    2c:35:ed:8b:82:7c:8e:e0:d1:02:0a:54:60:61:b0:
                    76:36:1d:47:73:cd:4b:94:0f:61:01:ea:41:36:d6:
                    b7:70:c0:9e:41:6f:3e:12:67:a8:9b:47:5d:cc:f1:
                    6f:d4:ae:04:6b:33:7f:68:cd:45:6c:72:9f:3a:46:
                    b1:31:d6:1e:2f:43:6d:73:29:b4:54:a2:dc:d1:c7:
                    49:b8:77:9a:92:f9:35:b4:e1:4f:d6:ce:bf:dd:33:
                    88:df:cf:e9:10:1c:de:da:4a:07:b9:ee:14:57:50:
                    dc:6a:5a:1b:33:fd:00:8e:ec:b5:e8:f2:54:4f:80:
                    ca:bc:35:5e:2d:87:c4:35:c8:59:e1:39:0e:f2:ec:
                    d3:3d:fb:5f:c8:4a:b3:86:21:c4:69:ef:3e:3a:48:
                    5c
                P:   
                    00:eb:8c:48:bd:4d:37:be:bb:8e:cc:dd:60:a2:03:
                    15:bd:4f:a4:25:58:fa:8e:93:a2:7b:b9:42:88:c9:
                    e4:cd:e6:18:fd:89:bf:6c:92:1c:97:bc:55:82:3a:
                    45:14:65:a1:5f:4d:23:f4:45:5b:7f:90:a0:36:48:
                    8d:1a:8e:c4:d5:fc:04:8f:cc:5a:2f:48:29:58:b3:
                    92:5d:26:9f:02:67:f1:88:d2:20:aa:b8:24:4a:82:
                    73:62:b0:1d:eb:f6:70:90:f4:cb:01:50:53:cd:87:
                    de:29:ec:3c:5d:67:95:9f:fa:8e:c7:95:c7:77:b7:
                    91:39:0b:d7:10:ee:b4:e6:3e:be:4b:17:91:d8:a3:
                    06:d4:00:bc:17:62:e1:22:f9:69:4e:5e:58:9a:6b:
                    2b:bb:06:2d:60:57:0c:e3:85:3f:45:97:2d:8a:ae:
                    8c:a6:e7:5e:44:8f:92:11:9a:3d:2e:d0:cf:b3:34:
                    7a:2f:61:89:7c:19:ca:8c:87:30:c4:f5:bd:a7:36:
                    10:85:9a:1f:4c:5d:46:cb:93:2a:06:ca:d4:55:72:
                    63:fb:e4:7f:f6:88:4f:8b:e5:f9:eb:c9:31:5a:59:
                    0f:7b:d9:b6:6a:10:44:ef:4c:d1:11:f1:35:11:ec:
                    33:83:08:7d:31:e8:ae:70:19:b7:aa:2a:3f:f9:bf:
                    b8:cb
                Q:   
                    00:fc:fc:72:bd:42:99:d0:fa:08:be:f7:63:16:6e:
                    0d:5b:1f:10:75:f8:72:a4:aa:d7:86:a9:9c:2b:ec:
                    22:7b:d9
                G:   
                    76:14:49:08:48:ff:c4:a2:c0:fd:5d:0e:8b:50:df:
                    78:15:50:c1:d5:5a:94:32:32:7b:6e:a7:29:42:9f:
                    7d:cc:ce:4e:d3:13:98:b3:68:80:9c:3f:42:ff:2c:
                    c1:cb:0d:0d:e4:b2:ee:aa:23:3a:0a:54:78:b6:56:
                    d0:1d:f0:a3:6e:75:ab:ad:07:19:25:06:dd:ad:45:
                    1d:5b:b4:12:df:90:6a:7b:6b:b3:b9:31:48:5d:65:
                    3a:f0:66:37:de:d0:3e:85:ed:96:8a:89:5c:3f:35:
                    45:28:96:f7:89:f1:3d:81:92:09:78:b1:11:be:41:
                    02:60:48:37:07:b6:85:fb:6a:1d:94:02:bb:5a:35:
                    8c:a4:39:90:03:44:89:95:b9:28:1c:d2:fe:99:e8:
                    aa:e6:9f:2a:39:97:62:28:03:53:63:ec:7b:14:3f:
                    23:b2:78:df:31:5b:b2:e8:8d:5f:45:04:ce:bf:34:
                    3a:e0:4f:fe:10:55:ec:09:16:22:fa:de:b8:de:03:
                    04:6a:99:bb:04:62:f6:10:1b:a3:56:99:22:f8:9f:
                    e6:94:2c:9d:b2:11:a5:ee:b5:45:62:f0:df:9a:e4:
                    4d:fc:15:5f:1f:88:4d:07:b5:4f:f7:fd:82:d1:4b:
                    f9:02:d2:4c:de:11:a6:b1:b2:62:2a:82:57:dd:00:
                    19
    Signature Algorithm: dsa_with_SHA256
         r:   
             00:d6:08:2b:0b:a8:77:a7:5f:15:ce:1a:ca:d8:9e:
             db:81:f6:64:4a:bb:b0:76:63:ff:91:f8:50:25:69:
             9b:92:bc
         s:   
             0c:aa:db:76:d9:8b:1a:96:20:f9:6d:66:66:fa:ee:
             09:cd:d7:02:10:5e:93:1e:ab:82:b9:cf:fe:f4:e0:
             23:9d
-----BEGIN CERTIFICATE-----
MIIE1TCCBHoCCQCn8FQSu+K/+DALBglghkgBZQMEAwIwgYAxCzAJBgNVBAYTAlVT
MQswCQYDVQQIDAJDQTEUMBIGA1UEBwwLU2FudGEgQ2xhcmExHjAcBgNVBAoMFVJl
YWwgVGltZSBJbm5vdmF0aW9uczEPMA0GA1UEAwwGUlRJIENBMR0wGwYJKoZIhvcN
AQkBFg5zZWN1cmVAcnRpLmNvbTAeFw0xNzA2MjIyMTE5MzlaFw0xODA2MjIyMTE5
MzlaMHMxCzAJBgNVBAYTAlVTMQswCQYDVQQIDAJDQTEeMBwGA1UECgwVUmVhbCBU
aW1lIElubm92YXRpb25zMRgwFgYDVQQDDA9kdGxzZXhhbXBsZTJkc2ExHTAbBgkq
hkiG9w0BCQEWDnlvdWRzYUBydGkuY29tMIIDRjCCAjkGByqGSM44BAEwggIsAoIB
AQDrjEi9TTe+u47M3WCiAxW9T6QlWPqOk6J7uUKIyeTN5hj9ib9skhyXvFWCOkUU
ZaFfTSP0RVt/kKA2SI0ajsTV/ASPzFovSClYs5JdJp8CZ/GI0iCquCRKgnNisB3r
9nCQ9MsBUFPNh94p7DxdZ5Wf+o7Hlcd3t5E5C9cQ7rTmPr5LF5HYowbUALwXYuEi
+WlOXliaayu7Bi1gVwzjhT9Fly2Kroym515Ej5IRmj0u0M+zNHovYYl8GcqMhzDE
9b2nNhCFmh9MXUbLkyoGytRVcmP75H/2iE+L5fnryTFaWQ972bZqEETvTNER8TUR
7DODCH0x6K5wGbeqKj/5v7jLAiEA/PxyvUKZ0PoIvvdjFm4NWx8QdfhypKrXhqmc
K+wie9kCggEAdhRJCEj/xKLA/V0Oi1DfeBVQwdValDIye26nKUKffczOTtMTmLNo
gJw/Qv8swcsNDeSy7qojOgpUeLZW0B3wo251q60HGSUG3a1FHVu0Et+Qantrs7kx
SF1lOvBmN97QPoXtloqJXD81RSiW94nxPYGSCXixEb5BAmBINwe2hftqHZQCu1o1
jKQ5kANEiZW5KBzS/pnoquafKjmXYigDU2PsexQ/I7J43zFbsuiNX0UEzr80OuBP
/hBV7AkWIvreuN4DBGqZuwRi9hAbo1aZIvif5pQsnbIRpe61RWLw35rkTfwVXx+I
TQe1T/f9gtFL+QLSTN4RprGyYiqCV90AGQOCAQUAAoIBAAVP0A7G5aA9In3ltuy9
lkCKfQ7kIGY+k6Ti8CD4Nfref67DG/5pt5UJFJlhpMtIiRVt9dfcGAO2JCBYkcKU
79bb2c+qNZnXkpg7CIlotE3YBMCEVAFO9LxN/hInvz/0hCEGMcb5r5aNASw17YuC
fI7g0QIKVGBhsHY2HUdzzUuUD2EB6kE21rdwwJ5Bbz4SZ6ibR13M8W/UrgRrM39o
zUVscp86RrEx1h4vQ21zKbRUotzRx0m4d5qS+TW04U/Wzr/dM4jfz+kQHN7aSge5
7hRXUNxqWhsz/QCO7LXo8lRPgMq8NV4th8Q1yFnhOQ7y7NM9+1/ISrOGIcRp7z46
SFwwCwYJYIZIAWUDBAMCA0gAMEUCIQDWCCsLqHenXxXOGsrYntuB9mRKu7B2Y/+R
+FAlaZuSvAIgDKrbdtmLGpYg+W1mZvruCc3XAhBekx6rgrnP/vTgI50=
-----END CERTIFICATE-----
