Certificate:
    Data:
        Version: 1 (0x0)
        Serial Number:
            d2:d8:a5:3e:5a:e2:4f:fb
    Signature Algorithm: sha1WithRSAEncryption
        Issuer: C=US, ST=CA, L=Santa Clara, O=Real Time Innovations, CN=RTI CA/emailAddress=secure@rti.com
        Validity
            Not Before: Jun 22 21:18:53 2017 GMT
            Not After : Jun 22 21:18:53 2018 GMT
        Subject: C=US, ST=CA, O=Real Time Innovations, CN=dtlsexample/emailAddress=me@rti.com
        Subject Public Key Info:
            Public Key Algorithm: rsaEncryption
                Public-Key: (2048 bit)
                Modulus:
                    00:cc:8b:10:20:ab:6b:55:45:46:07:9f:fa:aa:cb:
                    4b:43:1e:75:f8:93:04:95:ba:c0:f2:4b:e5:c8:fa:
                    48:55:b6:28:61:7a:83:4c:c5:da:48:f0:d5:8c:b1:
                    90:93:1a:02:6e:0a:ee:66:dd:18:ca:b1:1c:16:0f:
                    c9:bf:7a:29:84:87:b5:d3:02:74:b0:1b:d2:a0:78:
                    54:34:b3:88:de:fe:2c:0c:37:a2:d2:68:e0:59:31:
                    f4:2e:70:b1:8f:3d:15:38:d0:0c:1c:fa:5a:57:20:
                    fe:6d:06:49:49:c8:5c:e3:42:fd:e4:50:21:37:88:
                    ff:a2:a3:ec:74:94:cf:63:40:80:91:11:2e:42:82:
                    44:6a:6b:0a:ae:51:85:a3:74:0c:1f:bb:a6:cd:b3:
                    73:ed:a3:2a:62:3e:98:b2:0a:6a:80:0f:85:83:98:
                    cf:34:b2:88:8b:bc:dd:66:37:24:c8:06:73:df:f6:
                    99:a7:10:f0:90:68:08:c6:ea:15:8b:72:ff:db:1f:
                    2f:54:25:e0:a4:10:4b:7f:be:4c:57:0c:d3:b7:00:
                    c6:a0:84:42:5e:41:12:04:3b:39:ac:68:3c:3a:25:
                    da:57:79:35:61:e6:4b:97:db:85:b1:3a:67:82:53:
                    e0:c0:21:00:d8:86:57:ea:8d:13:16:55:cb:4c:c4:
                    03:63
                Exponent: 65537 (0x10001)
    Signature Algorithm: sha1WithRSAEncryption
         0e:b9:16:42:fb:10:27:5c:59:9c:c7:c7:63:81:d4:7e:41:bf:
         1a:e0:ab:17:c9:fc:55:1a:d4:ff:82:46:4b:cc:2d:94:c8:bd:
         c4:6c:7c:ee:72:68:e8:32:c2:45:38:bd:fd:f9:b4:02:73:8f:
         8a:1e:f2:bb:9d:75:d2:7c:62:72:f6:66:6f:f7:4e:63:25:97:
         5e:44:f5:0d:4c:d8:21:57:9e:e2:b3:dd:25:4b:15:e1:26:2b:
         85:f7:13:dd:c6:4c:7e:16:54:81:86:22:ce:f1:35:36:76:73:
         b0:d6:73:21:2f:64:84:86:d6:57:b4:f2:5a:d6:78:f4:10:18:
         91:ea:85:c5:ec:f8:7c:66:08:96:23:c9:c0:8e:f4:72:21:40:
         c2:b3:2e:ec:e8:e1:3c:3f:0c:8c:ee:e3:b7:62:bc:e1:a5:e2:
         d7:ac:e3:7f:f3:08:42:c7:c3:20:2d:68:de:05:81:9c:c4:29:
         28:e9:1b:51:4c:79:5e:5f:55:d7:1f:5c:13:89:02:89:f8:8f:
         f3:7a:29:ec:54:0f:b2:dc:05:08:71:19:54:ef:73:16:36:56:
         38:75:c2:47:1a:aa:8d:8d:e3:86:08:ad:4b:3d:bf:4d:b5:c9:
         f1:f0:39:68:9e:03:4a:3c:36:0b:d2:90:e8:17:4b:a5:4e:40:
         62:d9:3e:30
-----BEGIN CERTIFICATE-----
MIIDaDCCAlACCQDS2KU+WuJP+zANBgkqhkiG9w0BAQUFADCBgDELMAkGA1UEBhMC
VVMxCzAJBgNVBAgMAkNBMRQwEgYDVQQHDAtTYW50YSBDbGFyYTEeMBwGA1UECgwV
UmVhbCBUaW1lIElubm92YXRpb25zMQ8wDQYDVQQDDAZSVEkgQ0ExHTAbBgkqhkiG
9w0BCQEWDnNlY3VyZUBydGkuY29tMB4XDTE3MDYyMjIxMTg1M1oXDTE4MDYyMjIx
MTg1M1owazELMAkGA1UEBhMCVVMxCzAJBgNVBAgMAkNBMR4wHAYDVQQKDBVSZWFs
IFRpbWUgSW5ub3ZhdGlvbnMxFDASBgNVBAMMC2R0bHNleGFtcGxlMRkwFwYJKoZI
hvcNAQkBFgptZUBydGkuY29tMIIBIjANBgkqhkiG9w0BAQEFAAOCAQ8AMIIBCgKC
AQEAzIsQIKtrVUVGB5/6qstLQx51+JMElbrA8kvlyPpIVbYoYXqDTMXaSPDVjLGQ
kxoCbgruZt0YyrEcFg/Jv3ophIe10wJ0sBvSoHhUNLOI3v4sDDei0mjgWTH0LnCx
jz0VONAMHPpaVyD+bQZJSchc40L95FAhN4j/oqPsdJTPY0CAkREuQoJEamsKrlGF
o3QMH7umzbNz7aMqYj6YsgpqgA+Fg5jPNLKIi7zdZjckyAZz3/aZpxDwkGgIxuoV
i3L/2x8vVCXgpBBLf75MVwzTtwDGoIRCXkESBDs5rGg8OiXaV3k1YeZLl9uFsTpn
glPgwCEA2IZX6o0TFlXLTMQDYwIDAQABMA0GCSqGSIb3DQEBBQUAA4IBAQAOuRZC
+xAnXFmcx8djgdR+Qb8a4KsXyfxVGtT/gkZLzC2UyL3EbHzucmjoMsJFOL39+bQC
c4+KHvK7nXXSfGJy9mZv905jJZdeRPUNTNghV57is90lSxXhJiuF9xPdxkx+FlSB
hiLO8TU2dnOw1nMhL2SEhtZXtPJa1nj0EBiR6oXF7Ph8ZgiWI8nAjvRyIUDCsy7s
6OE8PwyM7uO3YrzhpeLXrON/8whCx8MgLWjeBYGcxCko6RtRTHleX1XXH1wTiQKJ
+I/zeinsVA+y3AUIcRlU73MWNlY4dcJHGqqNjeOGCK1LPb9Ntcnx8DlongNKPDYL
0pDoF0ulTkBi2T4w
-----END CERTIFICATE-----
-----BEGIN PRIVATE KEY-----
MIIEvQIBADANBgkqhkiG9w0BAQEFAASCBKcwggSjAgEAAoIBAQDMixAgq2tVRUYH
n/qqy0tDHnX4kwSVusDyS+XI+khVtihheoNMxdpI8NWMsZCTGgJuCu5m3RjKsRwW
D8m/eimEh7XTAnSwG9KgeFQ0s4je/iwMN6LSaOBZMfQucLGPPRU40Awc+lpXIP5t
BklJyFzjQv3kUCE3iP+io+x0lM9jQICRES5CgkRqawquUYWjdAwfu6bNs3Ptoypi
PpiyCmqAD4WDmM80soiLvN1mNyTIBnPf9pmnEPCQaAjG6hWLcv/bHy9UJeCkEEt/
vkxXDNO3AMaghEJeQRIEOzmsaDw6JdpXeTVh5kuX24WxOmeCU+DAIQDYhlfqjRMW
VctMxANjAgMBAAECggEAXfluOXRIZe7j09D+e8XXGElAbiotqxUYXLneIs5KuYZt
WwvMk1M7jNOJaZCTGeKTRzeifIQMRePFQaWTTXO063zmXsH8FoVR6gQeu+/YbIte
dWaCWiVxHcnDpCqGiYbI30dGqXGkW+9+tVx0A4AYnRlESMc/26IHwROLKazM8431
3VfzirzUVvOLQSUcZsVAV98y1xWkBDzmMUBP22yPnblWWUEpDInxUN7RYAu0W0bN
ikXr6T6FDdcN3vROXTGtJIoGlMNp8BCtFKFC2pmCwFmNX5OkqZdxl3xVdldfs3BG
WdmXQoZyMwNgFjG+8m7Jdwvf2+TDuSM5rUNqda2fUQKBgQD6xF8ZKX242dAW274M
ERpJaNDdF3ZwV15ezx/t/4wEeUY1Uc/an2AFdKpIR2RRErhVNbgfkP+n4DYp+3Jb
2iR0HDVXv28IVkUdAusGzNjOo8T73OF7hYu9EeD3rKs5TDUXEROfVjXVf7RYEEMz
KuWyvI8Mqj8cf+4Tsc5WUcSwpwKBgQDQz8IKvHojS9c/fGUkWNhQc/VBrMekDsmc
vlcpp1o0Wr7fOtGF40L9BWvEn4UhfqBc24+naOis0tlDZGuFpYob8Mb07HThFSFM
eNxBGlh/5gQ5azAQRxUbacZHNqwTJQjgb7Nnyv2JJM7Qf/HWoRQOx0dHuZbd17Ia
gqsiZe/S5QKBgBUzpyq0dFm9qLdWCuJwS72rLAWVZ0EmUedIMdXohkkWi9YUPbOp
R/AOJhuIVbX5FDa4HQImO0dRUKMKDGgxsGVUwTnTCKs2yA8k4QQpK6eE9zGoQjQ0
XVU1/sRSCAQHKnHx0qvlGRYc/v13Godn+BW9lYanmkBpnJJztRNdRHj/AoGBAJ5o
3nYyoh3gzTy2bCx00jXGoorePt4w8bZdl9ZbxUzugtrqzkTaMdmtoSIbOm48l/+Z
+ZMxPULO+k/sAL305Z9ovCbWs5yF4SsYjU8+Y2Ez6IR+0ommw1Z2mhswWL51XBSX
6OyWzFycdeErDxaaQJMtjt/U5aUKm20NMDL6TkQZAoGAdr87DbxSXqfq1+ArJw5/
6wjmMHro7O/yIJehs4gDSUnr+xnaZb+ltdiZKu9RRDZ1vGQs70o5hqC5+XSJJoCf
ws2cLm6uRQ/oqft/ClAxbyIQcgtMJ4+wSxbiUvY/eD7PhoaJHPBBiybC5jBTw91Q
hkBAmrVzHFDbnqOo0P9O/tA=
-----END PRIVATE KEY-----
